
core_main.riscv:     file format elf32-littleriscv


Disassembly of section .text.init:

40000000 <_start>:
40000000:	4081                	li	ra,0
40000002:	4101                	li	sp,0
40000004:	4181                	li	gp,0
40000006:	4201                	li	tp,0
40000008:	4281                	li	t0,0
4000000a:	4301                	li	t1,0
4000000c:	4381                	li	t2,0
4000000e:	4401                	li	s0,0
40000010:	4481                	li	s1,0
40000012:	4501                	li	a0,0
40000014:	4581                	li	a1,0
40000016:	4601                	li	a2,0
40000018:	4681                	li	a3,0
4000001a:	4701                	li	a4,0
4000001c:	4781                	li	a5,0
4000001e:	4801                	li	a6,0
40000020:	4881                	li	a7,0
40000022:	4901                	li	s2,0
40000024:	4981                	li	s3,0
40000026:	4a01                	li	s4,0
40000028:	4a81                	li	s5,0
4000002a:	4b01                	li	s6,0
4000002c:	4b81                	li	s7,0
4000002e:	4c01                	li	s8,0
40000030:	4c81                	li	s9,0
40000032:	4d01                	li	s10,0
40000034:	4d81                	li	s11,0
40000036:	4e01                	li	t3,0
40000038:	4e81                	li	t4,0
4000003a:	4f01                	li	t5,0
4000003c:	4f81                	li	t6,0
4000003e:	62f9                	lui	t0,0x1e
40000040:	3002a073          	csrs	mstatus,t0
40000044:	4285                	li	t0,1
40000046:	02fe                	slli	t0,t0,0x1f
40000048:	0002c863          	bltz	t0,40000058 <_start+0x58>
4000004c:	4505                	li	a0,1
4000004e:	00003297          	auipc	t0,0x3
40000052:	92a2a923          	sw	a0,-1742(t0) # 40002980 <tohost>
40000056:	bfdd                	j	4000004c <_start+0x4c>
40000058:	00000297          	auipc	t0,0x0
4000005c:	03828293          	addi	t0,t0,56 # 40000090 <trap_entry>
40000060:	30529073          	csrw	mtvec,t0
40000064:	00003197          	auipc	gp,0x3
40000068:	16418193          	addi	gp,gp,356 # 400031c8 <__global_pointer$>
4000006c:	05318213          	addi	tp,gp,83 # 4000321b <_end+0x3f>
40000070:	fc027213          	andi	tp,tp,-64
40000074:	f1402573          	csrr	a0,mhartid
40000078:	4585                	li	a1,1
4000007a:	00b57063          	bgeu	a0,a1,4000007a <_start+0x7a>
4000007e:	01151613          	slli	a2,a0,0x11
40000082:	9232                	add	tp,tp,a2
40000084:	00150113          	addi	sp,a0,1
40000088:	0146                	slli	sp,sp,0x11
4000008a:	9112                	add	sp,sp,tp
4000008c:	3250106f          	j	40001bb0 <main>

40000090 <trap_entry>:
40000090:	716d                	addi	sp,sp,-272
40000092:	c206                	sw	ra,4(sp)
40000094:	c40a                	sw	sp,8(sp)
40000096:	c60e                	sw	gp,12(sp)
40000098:	c812                	sw	tp,16(sp)
4000009a:	ca16                	sw	t0,20(sp)
4000009c:	cc1a                	sw	t1,24(sp)
4000009e:	ce1e                	sw	t2,28(sp)
400000a0:	d022                	sw	s0,32(sp)
400000a2:	d226                	sw	s1,36(sp)
400000a4:	d42a                	sw	a0,40(sp)
400000a6:	d62e                	sw	a1,44(sp)
400000a8:	d832                	sw	a2,48(sp)
400000aa:	da36                	sw	a3,52(sp)
400000ac:	dc3a                	sw	a4,56(sp)
400000ae:	de3e                	sw	a5,60(sp)
400000b0:	c0c2                	sw	a6,64(sp)
400000b2:	c2c6                	sw	a7,68(sp)
400000b4:	c4ca                	sw	s2,72(sp)
400000b6:	c6ce                	sw	s3,76(sp)
400000b8:	c8d2                	sw	s4,80(sp)
400000ba:	cad6                	sw	s5,84(sp)
400000bc:	ccda                	sw	s6,88(sp)
400000be:	cede                	sw	s7,92(sp)
400000c0:	d0e2                	sw	s8,96(sp)
400000c2:	d2e6                	sw	s9,100(sp)
400000c4:	d4ea                	sw	s10,104(sp)
400000c6:	d6ee                	sw	s11,108(sp)
400000c8:	d8f2                	sw	t3,112(sp)
400000ca:	daf6                	sw	t4,116(sp)
400000cc:	dcfa                	sw	t5,120(sp)
400000ce:	defe                	sw	t6,124(sp)
400000d0:	34202573          	csrr	a0,mcause
400000d4:	341025f3          	csrr	a1,mepc
400000d8:	860a                	mv	a2,sp
400000da:	229010ef          	jal	ra,40001b02 <handle_trap>
400000de:	34151073          	csrw	mepc,a0
400000e2:	000022b7          	lui	t0,0x2
400000e6:	80028293          	addi	t0,t0,-2048 # 1800 <_tbss_end+0x1800>
400000ea:	3002a073          	csrs	mstatus,t0
400000ee:	4092                	lw	ra,4(sp)
400000f0:	4122                	lw	sp,8(sp)
400000f2:	41b2                	lw	gp,12(sp)
400000f4:	4242                	lw	tp,16(sp)
400000f6:	42d2                	lw	t0,20(sp)
400000f8:	4362                	lw	t1,24(sp)
400000fa:	43f2                	lw	t2,28(sp)
400000fc:	5402                	lw	s0,32(sp)
400000fe:	5492                	lw	s1,36(sp)
40000100:	5522                	lw	a0,40(sp)
40000102:	55b2                	lw	a1,44(sp)
40000104:	5642                	lw	a2,48(sp)
40000106:	56d2                	lw	a3,52(sp)
40000108:	5762                	lw	a4,56(sp)
4000010a:	57f2                	lw	a5,60(sp)
4000010c:	4806                	lw	a6,64(sp)
4000010e:	4896                	lw	a7,68(sp)
40000110:	4926                	lw	s2,72(sp)
40000112:	49b6                	lw	s3,76(sp)
40000114:	4a46                	lw	s4,80(sp)
40000116:	4ad6                	lw	s5,84(sp)
40000118:	4b66                	lw	s6,88(sp)
4000011a:	4bf6                	lw	s7,92(sp)
4000011c:	5c06                	lw	s8,96(sp)
4000011e:	5c96                	lw	s9,100(sp)
40000120:	5d26                	lw	s10,104(sp)
40000122:	5db6                	lw	s11,108(sp)
40000124:	5e46                	lw	t3,112(sp)
40000126:	5ed6                	lw	t4,116(sp)
40000128:	5f66                	lw	t5,120(sp)
4000012a:	5ff6                	lw	t6,124(sp)
4000012c:	6151                	addi	sp,sp,272
4000012e:	30200073          	mret

Disassembly of section .text:

40000132 <cmp_idx>:
40000132:	c619                	beqz	a2,40000140 <cmp_idx+0xe>
40000134:	00251503          	lh	a0,2(a0)
40000138:	00259783          	lh	a5,2(a1)
4000013c:	8d1d                	sub	a0,a0,a5
4000013e:	8082                	ret
40000140:	00051783          	lh	a5,0(a0)
40000144:	01079713          	slli	a4,a5,0x10
40000148:	8341                	srli	a4,a4,0x10
4000014a:	8321                	srli	a4,a4,0x8
4000014c:	f007f793          	andi	a5,a5,-256
40000150:	8fd9                	or	a5,a5,a4
40000152:	00f51023          	sh	a5,0(a0)
40000156:	00059783          	lh	a5,0(a1)
4000015a:	00251503          	lh	a0,2(a0)
4000015e:	01079713          	slli	a4,a5,0x10
40000162:	8341                	srli	a4,a4,0x10
40000164:	8321                	srli	a4,a4,0x8
40000166:	f007f793          	andi	a5,a5,-256
4000016a:	8fd9                	or	a5,a5,a4
4000016c:	00f59023          	sh	a5,0(a1)
40000170:	00259783          	lh	a5,2(a1)
40000174:	8d1d                	sub	a0,a0,a5
40000176:	8082                	ret

40000178 <calc_func>:
40000178:	1101                	addi	sp,sp,-32
4000017a:	cc22                	sw	s0,24(sp)
4000017c:	00051403          	lh	s0,0(a0)
40000180:	ce06                	sw	ra,28(sp)
40000182:	ca26                	sw	s1,20(sp)
40000184:	40745793          	srai	a5,s0,0x7
40000188:	c84a                	sw	s2,16(sp)
4000018a:	c64e                	sw	s3,12(sp)
4000018c:	8b85                	andi	a5,a5,1
4000018e:	cb91                	beqz	a5,400001a2 <calc_func+0x2a>
40000190:	40f2                	lw	ra,28(sp)
40000192:	07f47513          	andi	a0,s0,127
40000196:	4462                	lw	s0,24(sp)
40000198:	44d2                	lw	s1,20(sp)
4000019a:	4942                	lw	s2,16(sp)
4000019c:	49b2                	lw	s3,12(sp)
4000019e:	6105                	addi	sp,sp,32
400001a0:	8082                	ret
400001a2:	84ae                	mv	s1,a1
400001a4:	40345593          	srai	a1,s0,0x3
400001a8:	89bd                	andi	a1,a1,15
400001aa:	00459713          	slli	a4,a1,0x4
400001ae:	00747693          	andi	a3,s0,7
400001b2:	0384d783          	lhu	a5,56(s1)
400001b6:	89aa                	mv	s3,a0
400001b8:	8dd9                	or	a1,a1,a4
400001ba:	ceb9                	beqz	a3,40000218 <calc_func+0xa0>
400001bc:	4705                	li	a4,1
400001be:	02e68c63          	beq	a3,a4,400001f6 <calc_func+0x7e>
400001c2:	01041513          	slli	a0,s0,0x10
400001c6:	8141                	srli	a0,a0,0x10
400001c8:	8922                	mv	s2,s0
400001ca:	85be                	mv	a1,a5
400001cc:	058010ef          	jal	ra,40001224 <crcu16>
400001d0:	87aa                	mv	a5,a0
400001d2:	f0047413          	andi	s0,s0,-256
400001d6:	07f97513          	andi	a0,s2,127
400001da:	8c49                	or	s0,s0,a0
400001dc:	02f49c23          	sh	a5,56(s1)
400001e0:	08046413          	ori	s0,s0,128
400001e4:	00899023          	sh	s0,0(s3)
400001e8:	40f2                	lw	ra,28(sp)
400001ea:	4462                	lw	s0,24(sp)
400001ec:	44d2                	lw	s1,20(sp)
400001ee:	4942                	lw	s2,16(sp)
400001f0:	49b2                	lw	s3,12(sp)
400001f2:	6105                	addi	sp,sp,32
400001f4:	8082                	ret
400001f6:	863e                	mv	a2,a5
400001f8:	02848513          	addi	a0,s1,40
400001fc:	2b1000ef          	jal	ra,40000cac <core_bench_matrix>
40000200:	03c4d783          	lhu	a5,60(s1)
40000204:	01051913          	slli	s2,a0,0x10
40000208:	41095913          	srai	s2,s2,0x10
4000020c:	e3b9                	bnez	a5,40000252 <calc_func+0xda>
4000020e:	0384d783          	lhu	a5,56(s1)
40000212:	02a49e23          	sh	a0,60(s1)
40000216:	bf55                	j	400001ca <calc_func+0x52>
40000218:	02200693          	li	a3,34
4000021c:	872e                	mv	a4,a1
4000021e:	00d5d463          	bge	a1,a3,40000226 <calc_func+0xae>
40000222:	02200713          	li	a4,34
40000226:	00249683          	lh	a3,2(s1)
4000022a:	00049603          	lh	a2,0(s1)
4000022e:	48cc                	lw	a1,20(s1)
40000230:	4c88                	lw	a0,24(s1)
40000232:	0ff77713          	andi	a4,a4,255
40000236:	651000ef          	jal	ra,40001086 <core_bench_state>
4000023a:	03e4d783          	lhu	a5,62(s1)
4000023e:	01051913          	slli	s2,a0,0x10
40000242:	41095913          	srai	s2,s2,0x10
40000246:	e791                	bnez	a5,40000252 <calc_func+0xda>
40000248:	0384d783          	lhu	a5,56(s1)
4000024c:	02a49f23          	sh	a0,62(s1)
40000250:	bfad                	j	400001ca <calc_func+0x52>
40000252:	0384d783          	lhu	a5,56(s1)
40000256:	bf95                	j	400001ca <calc_func+0x52>

40000258 <cmp_complex>:
40000258:	1141                	addi	sp,sp,-16
4000025a:	c226                	sw	s1,4(sp)
4000025c:	84ae                	mv	s1,a1
4000025e:	85b2                	mv	a1,a2
40000260:	c606                	sw	ra,12(sp)
40000262:	c422                	sw	s0,8(sp)
40000264:	8432                	mv	s0,a2
40000266:	3f09                	jal	40000178 <calc_func>
40000268:	87aa                	mv	a5,a0
4000026a:	85a2                	mv	a1,s0
4000026c:	8526                	mv	a0,s1
4000026e:	843e                	mv	s0,a5
40000270:	3721                	jal	40000178 <calc_func>
40000272:	40b2                	lw	ra,12(sp)
40000274:	40a40533          	sub	a0,s0,a0
40000278:	4422                	lw	s0,8(sp)
4000027a:	4492                	lw	s1,4(sp)
4000027c:	0141                	addi	sp,sp,16
4000027e:	8082                	ret

40000280 <copy_info>:
40000280:	00059703          	lh	a4,0(a1)
40000284:	00259783          	lh	a5,2(a1)
40000288:	00e51023          	sh	a4,0(a0)
4000028c:	00f51123          	sh	a5,2(a0)
40000290:	8082                	ret

40000292 <core_list_insert_new>:
40000292:	00062803          	lw	a6,0(a2)
40000296:	00880893          	addi	a7,a6,8
4000029a:	02e8ff63          	bgeu	a7,a4,400002d8 <core_list_insert_new+0x46>
4000029e:	4298                	lw	a4,0(a3)
400002a0:	00470313          	addi	t1,a4,4
400002a4:	02f37a63          	bgeu	t1,a5,400002d8 <core_list_insert_new+0x46>
400002a8:	01162023          	sw	a7,0(a2)
400002ac:	411c                	lw	a5,0(a0)
400002ae:	00059883          	lh	a7,0(a1)
400002b2:	00259603          	lh	a2,2(a1)
400002b6:	00f82023          	sw	a5,0(a6)
400002ba:	01052023          	sw	a6,0(a0)
400002be:	00e82223          	sw	a4,4(a6)
400002c2:	429c                	lw	a5,0(a3)
400002c4:	8542                	mv	a0,a6
400002c6:	0791                	addi	a5,a5,4
400002c8:	c29c                	sw	a5,0(a3)
400002ca:	00482783          	lw	a5,4(a6)
400002ce:	01179023          	sh	a7,0(a5)
400002d2:	00c79123          	sh	a2,2(a5)
400002d6:	8082                	ret
400002d8:	4801                	li	a6,0
400002da:	8542                	mv	a0,a6
400002dc:	8082                	ret

400002de <core_list_remove>:
400002de:	87aa                	mv	a5,a0
400002e0:	4108                	lw	a0,0(a0)
400002e2:	43d4                	lw	a3,4(a5)
400002e4:	4150                	lw	a2,4(a0)
400002e6:	4118                	lw	a4,0(a0)
400002e8:	c3d0                	sw	a2,4(a5)
400002ea:	c154                	sw	a3,4(a0)
400002ec:	c398                	sw	a4,0(a5)
400002ee:	00052023          	sw	zero,0(a0)
400002f2:	8082                	ret

400002f4 <core_list_undo_remove>:
400002f4:	41d0                	lw	a2,4(a1)
400002f6:	4154                	lw	a3,4(a0)
400002f8:	4198                	lw	a4,0(a1)
400002fa:	c150                	sw	a2,4(a0)
400002fc:	c1d4                	sw	a3,4(a1)
400002fe:	c118                	sw	a4,0(a0)
40000300:	c188                	sw	a0,0(a1)
40000302:	8082                	ret

40000304 <core_list_find>:
40000304:	00259703          	lh	a4,2(a1)
40000308:	00074c63          	bltz	a4,40000320 <core_list_find+0x1c>
4000030c:	e501                	bnez	a0,40000314 <core_list_find+0x10>
4000030e:	a03d                	j	4000033c <core_list_find+0x38>
40000310:	4108                	lw	a0,0(a0)
40000312:	c11d                	beqz	a0,40000338 <core_list_find+0x34>
40000314:	415c                	lw	a5,4(a0)
40000316:	00279783          	lh	a5,2(a5)
4000031a:	fee79be3          	bne	a5,a4,40000310 <core_list_find+0xc>
4000031e:	8082                	ret
40000320:	cd01                	beqz	a0,40000338 <core_list_find+0x34>
40000322:	00059703          	lh	a4,0(a1)
40000326:	a019                	j	4000032c <core_list_find+0x28>
40000328:	4108                	lw	a0,0(a0)
4000032a:	c901                	beqz	a0,4000033a <core_list_find+0x36>
4000032c:	415c                	lw	a5,4(a0)
4000032e:	0007c783          	lbu	a5,0(a5)
40000332:	fee79be3          	bne	a5,a4,40000328 <core_list_find+0x24>
40000336:	8082                	ret
40000338:	4501                	li	a0,0
4000033a:	8082                	ret
4000033c:	8082                	ret

4000033e <core_list_reverse>:
4000033e:	c901                	beqz	a0,4000034e <core_list_reverse+0x10>
40000340:	4701                	li	a4,0
40000342:	a011                	j	40000346 <core_list_reverse+0x8>
40000344:	853e                	mv	a0,a5
40000346:	411c                	lw	a5,0(a0)
40000348:	c118                	sw	a4,0(a0)
4000034a:	872a                	mv	a4,a0
4000034c:	ffe5                	bnez	a5,40000344 <core_list_reverse+0x6>
4000034e:	8082                	ret

40000350 <core_list_mergesort>:
40000350:	7179                	addi	sp,sp,-48
40000352:	d226                	sw	s1,36(sp)
40000354:	ca56                	sw	s5,20(sp)
40000356:	c65e                	sw	s7,12(sp)
40000358:	c266                	sw	s9,4(sp)
4000035a:	c06a                	sw	s10,0(sp)
4000035c:	d606                	sw	ra,44(sp)
4000035e:	d422                	sw	s0,40(sp)
40000360:	d04a                	sw	s2,32(sp)
40000362:	ce4e                	sw	s3,28(sp)
40000364:	cc52                	sw	s4,24(sp)
40000366:	c85a                	sw	s6,16(sp)
40000368:	c462                	sw	s8,8(sp)
4000036a:	84aa                	mv	s1,a0
4000036c:	8bae                	mv	s7,a1
4000036e:	8d32                	mv	s10,a2
40000370:	4a85                	li	s5,1
40000372:	4c85                	li	s9,1
40000374:	c8bd                	beqz	s1,400003ea <core_list_mergesort+0x9a>
40000376:	4c01                	li	s8,0
40000378:	4901                	li	s2,0
4000037a:	4b01                	li	s6,0
4000037c:	0c05                	addi	s8,s8,1
4000037e:	87a6                	mv	a5,s1
40000380:	4401                	li	s0,0
40000382:	439c                	lw	a5,0(a5)
40000384:	0405                	addi	s0,s0,1
40000386:	c399                	beqz	a5,4000038c <core_list_mergesort+0x3c>
40000388:	fe8a9de3          	bne	s5,s0,40000382 <core_list_mergesort+0x32>
4000038c:	8a26                	mv	s4,s1
4000038e:	89d6                	mv	s3,s5
40000390:	84be                	mv	s1,a5
40000392:	c405                	beqz	s0,400003ba <core_list_mergesort+0x6a>
40000394:	02098e63          	beqz	s3,400003d0 <core_list_mergesort+0x80>
40000398:	cc85                	beqz	s1,400003d0 <core_list_mergesort+0x80>
4000039a:	40cc                	lw	a1,4(s1)
4000039c:	004a2503          	lw	a0,4(s4)
400003a0:	866a                	mv	a2,s10
400003a2:	9b82                	jalr	s7
400003a4:	02a05663          	blez	a0,400003d0 <core_list_mergesort+0x80>
400003a8:	87a6                	mv	a5,s1
400003aa:	4084                	lw	s1,0(s1)
400003ac:	19fd                	addi	s3,s3,-1
400003ae:	00090e63          	beqz	s2,400003ca <core_list_mergesort+0x7a>
400003b2:	00f92023          	sw	a5,0(s2)
400003b6:	893e                	mv	s2,a5
400003b8:	fc71                	bnez	s0,40000394 <core_list_mergesort+0x44>
400003ba:	02098063          	beqz	s3,400003da <core_list_mergesort+0x8a>
400003be:	cc99                	beqz	s1,400003dc <core_list_mergesort+0x8c>
400003c0:	87a6                	mv	a5,s1
400003c2:	19fd                	addi	s3,s3,-1
400003c4:	4084                	lw	s1,0(s1)
400003c6:	fe0916e3          	bnez	s2,400003b2 <core_list_mergesort+0x62>
400003ca:	8b3e                	mv	s6,a5
400003cc:	893e                	mv	s2,a5
400003ce:	b7ed                	j	400003b8 <core_list_mergesort+0x68>
400003d0:	87d2                	mv	a5,s4
400003d2:	147d                	addi	s0,s0,-1
400003d4:	000a2a03          	lw	s4,0(s4)
400003d8:	bfd9                	j	400003ae <core_list_mergesort+0x5e>
400003da:	f0cd                	bnez	s1,4000037c <core_list_mergesort+0x2c>
400003dc:	00092023          	sw	zero,0(s2)
400003e0:	019c0863          	beq	s8,s9,400003f0 <core_list_mergesort+0xa0>
400003e4:	0a86                	slli	s5,s5,0x1
400003e6:	84da                	mv	s1,s6
400003e8:	b771                	j	40000374 <core_list_mergesort+0x24>
400003ea:	00002023          	sw	zero,0(zero) # 0 <_tbss_end>
400003ee:	9002                	ebreak
400003f0:	50b2                	lw	ra,44(sp)
400003f2:	5422                	lw	s0,40(sp)
400003f4:	5492                	lw	s1,36(sp)
400003f6:	5902                	lw	s2,32(sp)
400003f8:	49f2                	lw	s3,28(sp)
400003fa:	4a62                	lw	s4,24(sp)
400003fc:	4ad2                	lw	s5,20(sp)
400003fe:	4bb2                	lw	s7,12(sp)
40000400:	4c22                	lw	s8,8(sp)
40000402:	4c92                	lw	s9,4(sp)
40000404:	4d02                	lw	s10,0(sp)
40000406:	855a                	mv	a0,s6
40000408:	4b42                	lw	s6,16(sp)
4000040a:	6145                	addi	sp,sp,48
4000040c:	8082                	ret

4000040e <core_bench_list>:
4000040e:	7139                	addi	sp,sp,-64
40000410:	cc62                	sw	s8,24(sp)
40000412:	00451c03          	lh	s8,4(a0)
40000416:	dc22                	sw	s0,56(sp)
40000418:	d256                	sw	s5,36(sp)
4000041a:	d05a                	sw	s6,32(sp)
4000041c:	de06                	sw	ra,60(sp)
4000041e:	da26                	sw	s1,52(sp)
40000420:	d84a                	sw	s2,48(sp)
40000422:	d64e                	sw	s3,44(sp)
40000424:	d452                	sw	s4,40(sp)
40000426:	ce5e                	sw	s7,28(sp)
40000428:	ca66                	sw	s9,20(sp)
4000042a:	00011623          	sh	zero,12(sp)
4000042e:	00b11723          	sh	a1,14(sp)
40000432:	5140                	lw	s0,36(a0)
40000434:	8b2a                	mv	s6,a0
40000436:	8aae                	mv	s5,a1
40000438:	17805063          	blez	s8,40000598 <core_bench_list+0x18a>
4000043c:	8cae                	mv	s9,a1
4000043e:	4901                	li	s2,0
40000440:	4b81                	li	s7,0
40000442:	4981                	li	s3,0
40000444:	4481                	li	s1,0
40000446:	00c10a13          	addi	s4,sp,12
4000044a:	0ff97793          	andi	a5,s2,255
4000044e:	85d2                	mv	a1,s4
40000450:	8522                	mv	a0,s0
40000452:	00f11623          	sh	a5,12(sp)
40000456:	357d                	jal	40000304 <core_list_find>
40000458:	c801                	beqz	s0,40000468 <core_bench_list+0x5a>
4000045a:	4701                	li	a4,0
4000045c:	a011                	j	40000460 <core_bench_list+0x52>
4000045e:	843e                	mv	s0,a5
40000460:	401c                	lw	a5,0(s0)
40000462:	c018                	sw	a4,0(s0)
40000464:	8722                	mv	a4,s0
40000466:	ffe5                	bnez	a5,4000045e <core_bench_list+0x50>
40000468:	c529                	beqz	a0,400004b2 <core_bench_list+0xa4>
4000046a:	415c                	lw	a5,4(a0)
4000046c:	0985                	addi	s3,s3,1
4000046e:	09c2                	slli	s3,s3,0x10
40000470:	00079783          	lh	a5,0(a5)
40000474:	0109d993          	srli	s3,s3,0x10
40000478:	0017f713          	andi	a4,a5,1
4000047c:	c711                	beqz	a4,40000488 <core_bench_list+0x7a>
4000047e:	87a5                	srai	a5,a5,0x9
40000480:	8b85                	andi	a5,a5,1
40000482:	94be                	add	s1,s1,a5
40000484:	04c2                	slli	s1,s1,0x10
40000486:	80c1                	srli	s1,s1,0x10
40000488:	411c                	lw	a5,0(a0)
4000048a:	c791                	beqz	a5,40000496 <core_bench_list+0x88>
4000048c:	4398                	lw	a4,0(a5)
4000048e:	c118                	sw	a4,0(a0)
40000490:	4018                	lw	a4,0(s0)
40000492:	c398                	sw	a4,0(a5)
40000494:	c01c                	sw	a5,0(s0)
40000496:	000cc563          	bltz	s9,400004a0 <core_bench_list+0x92>
4000049a:	0c85                	addi	s9,s9,1
4000049c:	01911723          	sh	s9,14(sp)
400004a0:	0905                	addi	s2,s2,1
400004a2:	0942                	slli	s2,s2,0x10
400004a4:	41095913          	srai	s2,s2,0x10
400004a8:	032c0263          	beq	s8,s2,400004cc <core_bench_list+0xbe>
400004ac:	00e11c83          	lh	s9,14(sp)
400004b0:	bf69                	j	4000044a <core_bench_list+0x3c>
400004b2:	401c                	lw	a5,0(s0)
400004b4:	0b85                	addi	s7,s7,1
400004b6:	0bc2                	slli	s7,s7,0x10
400004b8:	43dc                	lw	a5,4(a5)
400004ba:	010bdb93          	srli	s7,s7,0x10
400004be:	00178783          	lb	a5,1(a5)
400004c2:	8b85                	andi	a5,a5,1
400004c4:	94be                	add	s1,s1,a5
400004c6:	04c2                	slli	s1,s1,0x10
400004c8:	80c1                	srli	s1,s1,0x10
400004ca:	b7f1                	j	40000496 <core_bench_list+0x88>
400004cc:	098a                	slli	s3,s3,0x2
400004ce:	41798bb3          	sub	s7,s3,s7
400004d2:	94de                	add	s1,s1,s7
400004d4:	04c2                	slli	s1,s1,0x10
400004d6:	80c1                	srli	s1,s1,0x10
400004d8:	01505a63          	blez	s5,400004ec <core_bench_list+0xde>
400004dc:	8522                	mv	a0,s0
400004de:	865a                	mv	a2,s6
400004e0:	00000597          	auipc	a1,0x0
400004e4:	d7858593          	addi	a1,a1,-648 # 40000258 <cmp_complex>
400004e8:	35a5                	jal	40000350 <core_list_mergesort>
400004ea:	842a                	mv	s0,a0
400004ec:	401c                	lw	a5,0(s0)
400004ee:	85d2                	mv	a1,s4
400004f0:	8522                	mv	a0,s0
400004f2:	0007a983          	lw	s3,0(a5)
400004f6:	0047aa03          	lw	s4,4(a5)
400004fa:	0049a683          	lw	a3,4(s3)
400004fe:	0009a703          	lw	a4,0(s3)
40000502:	c3d4                	sw	a3,4(a5)
40000504:	0149a223          	sw	s4,4(s3)
40000508:	c398                	sw	a4,0(a5)
4000050a:	0009a023          	sw	zero,0(s3)
4000050e:	3bdd                	jal	40000304 <core_list_find>
40000510:	892a                	mv	s2,a0
40000512:	cd35                	beqz	a0,4000058e <core_bench_list+0x180>
40000514:	405c                	lw	a5,4(s0)
40000516:	85a6                	mv	a1,s1
40000518:	00079503          	lh	a0,0(a5)
4000051c:	579000ef          	jal	ra,40001294 <crc16>
40000520:	00092903          	lw	s2,0(s2)
40000524:	84aa                	mv	s1,a0
40000526:	fe0917e3          	bnez	s2,40000514 <core_bench_list+0x106>
4000052a:	00042903          	lw	s2,0(s0)
4000052e:	0049aa03          	lw	s4,4(s3)
40000532:	00492703          	lw	a4,4(s2)
40000536:	00092783          	lw	a5,0(s2)
4000053a:	8522                	mv	a0,s0
4000053c:	00e9a223          	sw	a4,4(s3)
40000540:	01492223          	sw	s4,4(s2)
40000544:	00f9a023          	sw	a5,0(s3)
40000548:	01392023          	sw	s3,0(s2)
4000054c:	4601                	li	a2,0
4000054e:	00000597          	auipc	a1,0x0
40000552:	be458593          	addi	a1,a1,-1052 # 40000132 <cmp_idx>
40000556:	3bed                	jal	40000350 <core_list_mergesort>
40000558:	4100                	lw	s0,0(a0)
4000055a:	892a                	mv	s2,a0
4000055c:	c819                	beqz	s0,40000572 <core_bench_list+0x164>
4000055e:	00492783          	lw	a5,4(s2)
40000562:	85a6                	mv	a1,s1
40000564:	00079503          	lh	a0,0(a5)
40000568:	52d000ef          	jal	ra,40001294 <crc16>
4000056c:	4000                	lw	s0,0(s0)
4000056e:	84aa                	mv	s1,a0
40000570:	f47d                	bnez	s0,4000055e <core_bench_list+0x150>
40000572:	50f2                	lw	ra,60(sp)
40000574:	5462                	lw	s0,56(sp)
40000576:	5942                	lw	s2,48(sp)
40000578:	59b2                	lw	s3,44(sp)
4000057a:	5a22                	lw	s4,40(sp)
4000057c:	5a92                	lw	s5,36(sp)
4000057e:	5b02                	lw	s6,32(sp)
40000580:	4bf2                	lw	s7,28(sp)
40000582:	4c62                	lw	s8,24(sp)
40000584:	4cd2                	lw	s9,20(sp)
40000586:	8526                	mv	a0,s1
40000588:	54d2                	lw	s1,52(sp)
4000058a:	6121                	addi	sp,sp,64
4000058c:	8082                	ret
4000058e:	00042903          	lw	s2,0(s0)
40000592:	f80911e3          	bnez	s2,40000514 <core_bench_list+0x106>
40000596:	bf71                	j	40000532 <core_bench_list+0x124>
40000598:	4481                	li	s1,0
4000059a:	00c10a13          	addi	s4,sp,12
4000059e:	bf2d                	j	400004d8 <core_bench_list+0xca>

400005a0 <core_list_init>:
400005a0:	4e51                	li	t3,20
400005a2:	03c55e33          	divu	t3,a0,t3
400005a6:	77e1                	lui	a5,0xffff8
400005a8:	0005a023          	sw	zero,0(a1)
400005ac:	08078713          	addi	a4,a5,128 # ffff8080 <_end+0xbfff4ea4>
400005b0:	01058693          	addi	a3,a1,16
400005b4:	852e                	mv	a0,a1
400005b6:	00858313          	addi	t1,a1,8
400005ba:	1e79                	addi	t3,t3,-2
400005bc:	003e1f13          	slli	t5,t3,0x3
400005c0:	9f2e                	add	t5,t5,a1
400005c2:	01e5a223          	sw	t5,4(a1)
400005c6:	002e1f93          	slli	t6,t3,0x2
400005ca:	00ef1023          	sh	a4,0(t5)
400005ce:	000f1123          	sh	zero,2(t5)
400005d2:	9ffa                	add	t6,t6,t5
400005d4:	004f0713          	addi	a4,t5,4
400005d8:	0de6ff63          	bgeu	a3,t5,400006b6 <core_list_init+0x116>
400005dc:	008f0893          	addi	a7,t5,8
400005e0:	0df8fb63          	bgeu	a7,t6,400006b6 <core_list_init+0x116>
400005e4:	c5d8                	sw	a4,12(a1)
400005e6:	0005a423          	sw	zero,8(a1)
400005ea:	0065a023          	sw	t1,0(a1)
400005ee:	fff7c793          	not	a5,a5
400005f2:	577d                	li	a4,-1
400005f4:	00ef1223          	sh	a4,4(t5)
400005f8:	00ff1323          	sh	a5,6(t5)
400005fc:	040e0e63          	beqz	t3,40000658 <core_list_init+0xb8>
40000600:	01061293          	slli	t0,a2,0x10
40000604:	73e1                	lui	t2,0xffff8
40000606:	0102d293          	srli	t0,t0,0x10
4000060a:	4801                	li	a6,0
4000060c:	fff3c393          	not	t2,t2
40000610:	01081713          	slli	a4,a6,0x10
40000614:	8341                	srli	a4,a4,0x10
40000616:	00e2c7b3          	xor	a5,t0,a4
4000061a:	078e                	slli	a5,a5,0x3
4000061c:	8b1d                	andi	a4,a4,7
4000061e:	0787f793          	andi	a5,a5,120
40000622:	8fd9                	or	a5,a5,a4
40000624:	00879713          	slli	a4,a5,0x8
40000628:	00868593          	addi	a1,a3,8
4000062c:	0805                	addi	a6,a6,1
4000062e:	00488e93          	addi	t4,a7,4
40000632:	8fd9                	or	a5,a5,a4
40000634:	03e5f063          	bgeu	a1,t5,40000654 <core_list_init+0xb4>
40000638:	01fefe63          	bgeu	t4,t6,40000654 <core_list_init+0xb4>
4000063c:	0066a023          	sw	t1,0(a3)
40000640:	c114                	sw	a3,0(a0)
40000642:	0116a223          	sw	a7,4(a3)
40000646:	00f89023          	sh	a5,0(a7)
4000064a:	00789123          	sh	t2,2(a7)
4000064e:	8336                	mv	t1,a3
40000650:	88f6                	mv	a7,t4
40000652:	86ae                	mv	a3,a1
40000654:	fb0e1ee3          	bne	t3,a6,40000610 <core_list_init+0x70>
40000658:	00032803          	lw	a6,0(t1)
4000065c:	04080763          	beqz	a6,400006aa <core_list_init+0x10a>
40000660:	4795                	li	a5,5
40000662:	6591                	lui	a1,0x4
40000664:	02fe5e33          	divu	t3,t3,a5
40000668:	4685                	li	a3,1
4000066a:	15fd                	addi	a1,a1,-1
4000066c:	a809                	j	4000067e <core_list_init+0xde>
4000066e:	00082783          	lw	a5,0(a6)
40000672:	00d71123          	sh	a3,2(a4)
40000676:	8342                	mv	t1,a6
40000678:	0685                	addi	a3,a3,1
4000067a:	cb85                	beqz	a5,400006aa <core_list_init+0x10a>
4000067c:	883e                	mv	a6,a5
4000067e:	01069713          	slli	a4,a3,0x10
40000682:	8341                	srli	a4,a4,0x10
40000684:	00170793          	addi	a5,a4,1
40000688:	07a2                	slli	a5,a5,0x8
4000068a:	8f31                	xor	a4,a4,a2
4000068c:	7007f793          	andi	a5,a5,1792
40000690:	8fd9                	or	a5,a5,a4
40000692:	8fed                	and	a5,a5,a1
40000694:	00432703          	lw	a4,4(t1)
40000698:	fdc6ebe3          	bltu	a3,t3,4000066e <core_list_init+0xce>
4000069c:	00f71123          	sh	a5,2(a4)
400006a0:	00082783          	lw	a5,0(a6)
400006a4:	8342                	mv	t1,a6
400006a6:	0685                	addi	a3,a3,1
400006a8:	fbf1                	bnez	a5,4000067c <core_list_init+0xdc>
400006aa:	4601                	li	a2,0
400006ac:	00000597          	auipc	a1,0x0
400006b0:	a8658593          	addi	a1,a1,-1402 # 40000132 <cmp_idx>
400006b4:	b971                	j	40000350 <core_list_mergesort>
400006b6:	869a                	mv	a3,t1
400006b8:	88ba                	mv	a7,a4
400006ba:	4301                	li	t1,0
400006bc:	b781                	j	400005fc <core_list_init+0x5c>

400006be <iterate>:
400006be:	1141                	addi	sp,sp,-16
400006c0:	c04a                	sw	s2,0(sp)
400006c2:	01c52903          	lw	s2,28(a0)
400006c6:	c606                	sw	ra,12(sp)
400006c8:	c422                	sw	s0,8(sp)
400006ca:	c226                	sw	s1,4(sp)
400006cc:	02052c23          	sw	zero,56(a0)
400006d0:	02052e23          	sw	zero,60(a0)
400006d4:	02090c63          	beqz	s2,4000070c <iterate+0x4e>
400006d8:	842a                	mv	s0,a0
400006da:	4481                	li	s1,0
400006dc:	4585                	li	a1,1
400006de:	8522                	mv	a0,s0
400006e0:	333d                	jal	4000040e <core_bench_list>
400006e2:	03845583          	lhu	a1,56(s0)
400006e6:	33f000ef          	jal	ra,40001224 <crcu16>
400006ea:	55fd                	li	a1,-1
400006ec:	02a41c23          	sh	a0,56(s0)
400006f0:	8522                	mv	a0,s0
400006f2:	3b31                	jal	4000040e <core_bench_list>
400006f4:	03845583          	lhu	a1,56(s0)
400006f8:	32d000ef          	jal	ra,40001224 <crcu16>
400006fc:	02a41c23          	sh	a0,56(s0)
40000700:	e099                	bnez	s1,40000706 <iterate+0x48>
40000702:	02a41d23          	sh	a0,58(s0)
40000706:	0485                	addi	s1,s1,1
40000708:	fc991ae3          	bne	s2,s1,400006dc <iterate+0x1e>
4000070c:	40b2                	lw	ra,12(sp)
4000070e:	4422                	lw	s0,8(sp)
40000710:	4492                	lw	s1,4(sp)
40000712:	4902                	lw	s2,0(sp)
40000714:	4501                	li	a0,0
40000716:	0141                	addi	sp,sp,16
40000718:	8082                	ret

4000071a <core_init_matrix>:
4000071a:	1141                	addi	sp,sp,-16
4000071c:	c622                	sw	s0,12(sp)
4000071e:	c426                	sw	s1,8(sp)
40000720:	c24a                	sw	s2,4(sp)
40000722:	c04e                	sw	s3,0(sp)
40000724:	882a                	mv	a6,a0
40000726:	8436                	mv	s0,a3
40000728:	e211                	bnez	a2,4000072c <core_init_matrix+0x12>
4000072a:	4605                	li	a2,1
4000072c:	15fd                	addi	a1,a1,-1
4000072e:	ffc5f393          	andi	t2,a1,-4
40000732:	00438913          	addi	s2,t2,4 # ffff8004 <_end+0xbfff4e28>
40000736:	4781                	li	a5,0
40000738:	0a080763          	beqz	a6,400007e6 <core_init_matrix+0xcc>
4000073c:	853e                	mv	a0,a5
4000073e:	0785                	addi	a5,a5,1
40000740:	02f78733          	mul	a4,a5,a5
40000744:	070e                	slli	a4,a4,0x3
40000746:	ff076be3          	bltu	a4,a6,4000073c <core_init_matrix+0x22>
4000074a:	02a506b3          	mul	a3,a0,a0
4000074e:	89aa                	mv	s3,a0
40000750:	0686                	slli	a3,a3,0x1
40000752:	00d903b3          	add	t2,s2,a3
40000756:	c535                	beqz	a0,400007c2 <core_init_matrix+0xa8>
40000758:	6e41                	lui	t3,0x10
4000075a:	4281                	li	t0,0
4000075c:	4f81                	li	t6,0
4000075e:	4f05                	li	t5,1
40000760:	40790eb3          	sub	t4,s2,t2
40000764:	1e7d                	addi	t3,t3,-1
40000766:	fff50493          	addi	s1,a0,-1
4000076a:	00129593          	slli	a1,t0,0x1
4000076e:	959e                	add	a1,a1,t2
40000770:	887a                	mv	a6,t5
40000772:	4881                	li	a7,0
40000774:	03060633          	mul	a2,a2,a6
40000778:	01081793          	slli	a5,a6,0x10
4000077c:	83c1                	srli	a5,a5,0x10
4000077e:	00be8333          	add	t1,t4,a1
40000782:	0589                	addi	a1,a1,2
40000784:	0885                	addi	a7,a7,1
40000786:	0805                	addi	a6,a6,1
40000788:	41f65713          	srai	a4,a2,0x1f
4000078c:	8341                	srli	a4,a4,0x10
4000078e:	963a                	add	a2,a2,a4
40000790:	01c67633          	and	a2,a2,t3
40000794:	8e19                	sub	a2,a2,a4
40000796:	00c78733          	add	a4,a5,a2
4000079a:	0742                	slli	a4,a4,0x10
4000079c:	8341                	srli	a4,a4,0x10
4000079e:	97ba                	add	a5,a5,a4
400007a0:	fee59f23          	sh	a4,-2(a1)
400007a4:	0ff7f793          	andi	a5,a5,255
400007a8:	00f31023          	sh	a5,0(t1)
400007ac:	fca8e4e3          	bltu	a7,a0,40000774 <core_init_matrix+0x5a>
400007b0:	0f05                	addi	t5,t5,1
400007b2:	4781                	li	a5,0
400007b4:	c111                	beqz	a0,400007b8 <core_init_matrix+0x9e>
400007b6:	87a6                	mv	a5,s1
400007b8:	0f85                	addi	t6,t6,1
400007ba:	9f3e                	add	t5,t5,a5
400007bc:	92aa                	add	t0,t0,a0
400007be:	faafe6e3          	bltu	t6,a0,4000076a <core_init_matrix+0x50>
400007c2:	00d387b3          	add	a5,t2,a3
400007c6:	17fd                	addi	a5,a5,-1
400007c8:	9bf1                	andi	a5,a5,-4
400007ca:	0791                	addi	a5,a5,4
400007cc:	01242223          	sw	s2,4(s0)
400007d0:	01342023          	sw	s3,0(s0)
400007d4:	00742423          	sw	t2,8(s0)
400007d8:	c45c                	sw	a5,12(s0)
400007da:	4432                	lw	s0,12(sp)
400007dc:	44a2                	lw	s1,8(sp)
400007de:	4912                	lw	s2,4(sp)
400007e0:	4982                	lw	s3,0(sp)
400007e2:	0141                	addi	sp,sp,16
400007e4:	8082                	ret
400007e6:	0399                	addi	t2,t2,6
400007e8:	59fd                	li	s3,-1
400007ea:	557d                	li	a0,-1
400007ec:	4689                	li	a3,2
400007ee:	b7ad                	j	40000758 <core_init_matrix+0x3e>

400007f0 <matrix_sum>:
400007f0:	8eaa                	mv	t4,a0
400007f2:	cd39                	beqz	a0,40000850 <matrix_sum+0x60>
400007f4:	40a00f33          	neg	t5,a0
400007f8:	00251893          	slli	a7,a0,0x2
400007fc:	98ae                	add	a7,a7,a1
400007fe:	002f1f93          	slli	t6,t5,0x2
40000802:	4301                	li	t1,0
40000804:	4501                	li	a0,0
40000806:	4701                	li	a4,0
40000808:	4581                	li	a1,0
4000080a:	0f0e                	slli	t5,t5,0x3
4000080c:	011f8e33          	add	t3,t6,a7
40000810:	87f2                	mv	a5,t3
40000812:	a801                	j	40000822 <matrix_sum+0x32>
40000814:	01081513          	slli	a0,a6,0x10
40000818:	0791                	addi	a5,a5,4
4000081a:	8541                	srai	a0,a0,0x10
4000081c:	4581                	li	a1,0
4000081e:	02f88363          	beq	a7,a5,40000844 <matrix_sum+0x54>
40000822:	86ba                	mv	a3,a4
40000824:	4398                	lw	a4,0(a5)
40000826:	0542                	slli	a0,a0,0x10
40000828:	8141                	srli	a0,a0,0x10
4000082a:	00e6a6b3          	slt	a3,a3,a4
4000082e:	95ba                	add	a1,a1,a4
40000830:	00a50813          	addi	a6,a0,10
40000834:	9536                	add	a0,a0,a3
40000836:	fcb64fe3          	blt	a2,a1,40000814 <matrix_sum+0x24>
4000083a:	0542                	slli	a0,a0,0x10
4000083c:	0791                	addi	a5,a5,4
4000083e:	8541                	srai	a0,a0,0x10
40000840:	fef891e3          	bne	a7,a5,40000822 <matrix_sum+0x32>
40000844:	0305                	addi	t1,t1,1
40000846:	41ee08b3          	sub	a7,t3,t5
4000084a:	fc6e91e3          	bne	t4,t1,4000080c <matrix_sum+0x1c>
4000084e:	8082                	ret
40000850:	4501                	li	a0,0
40000852:	8082                	ret

40000854 <matrix_mul_const>:
40000854:	c129                	beqz	a0,40000896 <matrix_mul_const+0x42>
40000856:	40a00eb3          	neg	t4,a0
4000085a:	00151813          	slli	a6,a0,0x1
4000085e:	001e9f13          	slli	t5,t4,0x1
40000862:	9832                	add	a6,a6,a2
40000864:	4301                	li	t1,0
40000866:	4881                	li	a7,0
40000868:	0e8a                	slli	t4,t4,0x2
4000086a:	01e80e33          	add	t3,a6,t5
4000086e:	00231613          	slli	a2,t1,0x2
40000872:	962e                	add	a2,a2,a1
40000874:	87f2                	mv	a5,t3
40000876:	00079703          	lh	a4,0(a5)
4000087a:	0611                	addi	a2,a2,4
4000087c:	0789                	addi	a5,a5,2
4000087e:	02d70733          	mul	a4,a4,a3
40000882:	fee62e23          	sw	a4,-4(a2)
40000886:	fef818e3          	bne	a6,a5,40000876 <matrix_mul_const+0x22>
4000088a:	0885                	addi	a7,a7,1
4000088c:	932a                	add	t1,t1,a0
4000088e:	41de0833          	sub	a6,t3,t4
40000892:	fd151ce3          	bne	a0,a7,4000086a <matrix_mul_const+0x16>
40000896:	8082                	ret

40000898 <matrix_add_const>:
40000898:	cd05                	beqz	a0,400008d0 <matrix_add_const+0x38>
4000089a:	40a008b3          	neg	a7,a0
4000089e:	00151693          	slli	a3,a0,0x1
400008a2:	0642                	slli	a2,a2,0x10
400008a4:	96ae                	add	a3,a3,a1
400008a6:	00189313          	slli	t1,a7,0x1
400008aa:	8241                	srli	a2,a2,0x10
400008ac:	4581                	li	a1,0
400008ae:	088a                	slli	a7,a7,0x2
400008b0:	00d30833          	add	a6,t1,a3
400008b4:	87c2                	mv	a5,a6
400008b6:	0007d703          	lhu	a4,0(a5)
400008ba:	0789                	addi	a5,a5,2
400008bc:	9732                	add	a4,a4,a2
400008be:	fee79f23          	sh	a4,-2(a5)
400008c2:	fef69ae3          	bne	a3,a5,400008b6 <matrix_add_const+0x1e>
400008c6:	0585                	addi	a1,a1,1
400008c8:	411806b3          	sub	a3,a6,a7
400008cc:	feb512e3          	bne	a0,a1,400008b0 <matrix_add_const+0x18>
400008d0:	8082                	ret

400008d2 <matrix_mul_vect>:
400008d2:	cd1d                	beqz	a0,40000910 <matrix_mul_vect+0x3e>
400008d4:	00251f13          	slli	t5,a0,0x2
400008d8:	00151313          	slli	t1,a0,0x1
400008dc:	8e2e                	mv	t3,a1
400008de:	9f2e                	add	t5,t5,a1
400008e0:	9336                	add	t1,t1,a3
400008e2:	4e81                	li	t4,0
400008e4:	001e9593          	slli	a1,t4,0x1
400008e8:	95b2                	add	a1,a1,a2
400008ea:	87b6                	mv	a5,a3
400008ec:	4801                	li	a6,0
400008ee:	00059703          	lh	a4,0(a1)
400008f2:	00079883          	lh	a7,0(a5)
400008f6:	0789                	addi	a5,a5,2
400008f8:	0589                	addi	a1,a1,2
400008fa:	03170733          	mul	a4,a4,a7
400008fe:	983a                	add	a6,a6,a4
40000900:	fef317e3          	bne	t1,a5,400008ee <matrix_mul_vect+0x1c>
40000904:	010e2023          	sw	a6,0(t3) # 10000 <_tbss_end+0x10000>
40000908:	0e11                	addi	t3,t3,4
4000090a:	9eaa                	add	t4,t4,a0
4000090c:	fdcf1ce3          	bne	t5,t3,400008e4 <matrix_mul_vect+0x12>
40000910:	8082                	ret

40000912 <matrix_mul_matrix>:
40000912:	c52d                	beqz	a0,4000097c <matrix_mul_matrix+0x6a>
40000914:	1141                	addi	sp,sp,-16
40000916:	8f2a                	mv	t5,a0
40000918:	0506                	slli	a0,a0,0x1
4000091a:	c622                	sw	s0,12(sp)
4000091c:	83ae                	mv	t2,a1
4000091e:	8436                	mv	s0,a3
40000920:	8eb2                	mv	t4,a2
40000922:	00a60833          	add	a6,a2,a0
40000926:	4f81                	li	t6,0
40000928:	4281                	li	t0,0
4000092a:	002f9893          	slli	a7,t6,0x2
4000092e:	989e                	add	a7,a7,t2
40000930:	8322                	mv	t1,s0
40000932:	4e01                	li	t3,0
40000934:	869a                	mv	a3,t1
40000936:	87f6                	mv	a5,t4
40000938:	4601                	li	a2,0
4000093a:	00079703          	lh	a4,0(a5)
4000093e:	00069583          	lh	a1,0(a3)
40000942:	0789                	addi	a5,a5,2
40000944:	96aa                	add	a3,a3,a0
40000946:	02b70733          	mul	a4,a4,a1
4000094a:	963a                	add	a2,a2,a4
4000094c:	fef817e3          	bne	a6,a5,4000093a <matrix_mul_matrix+0x28>
40000950:	00c8a023          	sw	a2,0(a7)
40000954:	001e0793          	addi	a5,t3,1
40000958:	0891                	addi	a7,a7,4
4000095a:	0309                	addi	t1,t1,2
4000095c:	00ff0463          	beq	t5,a5,40000964 <matrix_mul_matrix+0x52>
40000960:	8e3e                	mv	t3,a5
40000962:	bfc9                	j	40000934 <matrix_mul_matrix+0x22>
40000964:	00128793          	addi	a5,t0,1
40000968:	9eaa                	add	t4,t4,a0
4000096a:	9ffa                	add	t6,t6,t5
4000096c:	982a                	add	a6,a6,a0
4000096e:	01c28463          	beq	t0,t3,40000976 <matrix_mul_matrix+0x64>
40000972:	82be                	mv	t0,a5
40000974:	bf5d                	j	4000092a <matrix_mul_matrix+0x18>
40000976:	4432                	lw	s0,12(sp)
40000978:	0141                	addi	sp,sp,16
4000097a:	8082                	ret
4000097c:	8082                	ret

4000097e <matrix_mul_matrix_bitextract>:
4000097e:	cd2d                	beqz	a0,400009f8 <matrix_mul_matrix_bitextract+0x7a>
40000980:	1141                	addi	sp,sp,-16
40000982:	8f2a                	mv	t5,a0
40000984:	0506                	slli	a0,a0,0x1
40000986:	c622                	sw	s0,12(sp)
40000988:	83ae                	mv	t2,a1
4000098a:	8436                	mv	s0,a3
4000098c:	8eb2                	mv	t4,a2
4000098e:	00a60833          	add	a6,a2,a0
40000992:	4f81                	li	t6,0
40000994:	4281                	li	t0,0
40000996:	002f9893          	slli	a7,t6,0x2
4000099a:	989e                	add	a7,a7,t2
4000099c:	8322                	mv	t1,s0
4000099e:	4e01                	li	t3,0
400009a0:	861a                	mv	a2,t1
400009a2:	86f6                	mv	a3,t4
400009a4:	4581                	li	a1,0
400009a6:	00061703          	lh	a4,0(a2)
400009aa:	00069783          	lh	a5,0(a3)
400009ae:	0689                	addi	a3,a3,2
400009b0:	962a                	add	a2,a2,a0
400009b2:	02e787b3          	mul	a5,a5,a4
400009b6:	4027d713          	srai	a4,a5,0x2
400009ba:	8795                	srai	a5,a5,0x5
400009bc:	8b3d                	andi	a4,a4,15
400009be:	07f7f793          	andi	a5,a5,127
400009c2:	02f707b3          	mul	a5,a4,a5
400009c6:	95be                	add	a1,a1,a5
400009c8:	fcd81fe3          	bne	a6,a3,400009a6 <matrix_mul_matrix_bitextract+0x28>
400009cc:	00b8a023          	sw	a1,0(a7)
400009d0:	001e0793          	addi	a5,t3,1
400009d4:	0891                	addi	a7,a7,4
400009d6:	0309                	addi	t1,t1,2
400009d8:	00ff0463          	beq	t5,a5,400009e0 <matrix_mul_matrix_bitextract+0x62>
400009dc:	8e3e                	mv	t3,a5
400009de:	b7c9                	j	400009a0 <matrix_mul_matrix_bitextract+0x22>
400009e0:	00128793          	addi	a5,t0,1
400009e4:	9eaa                	add	t4,t4,a0
400009e6:	9ffa                	add	t6,t6,t5
400009e8:	982a                	add	a6,a6,a0
400009ea:	01c28463          	beq	t0,t3,400009f2 <matrix_mul_matrix_bitextract+0x74>
400009ee:	82be                	mv	t0,a5
400009f0:	b75d                	j	40000996 <matrix_mul_matrix_bitextract+0x18>
400009f2:	4432                	lw	s0,12(sp)
400009f4:	0141                	addi	sp,sp,16
400009f6:	8082                	ret
400009f8:	8082                	ret

400009fa <matrix_test>:
400009fa:	7179                	addi	sp,sp,-48
400009fc:	d226                	sw	s1,36(sp)
400009fe:	d04a                	sw	s2,32(sp)
40000a00:	cc52                	sw	s4,24(sp)
40000a02:	ca56                	sw	s5,20(sp)
40000a04:	797d                	lui	s2,0xfffff
40000a06:	d606                	sw	ra,44(sp)
40000a08:	d422                	sw	s0,40(sp)
40000a0a:	ce4e                	sw	s3,28(sp)
40000a0c:	c85a                	sw	s6,16(sp)
40000a0e:	c65e                	sw	s7,12(sp)
40000a10:	c462                	sw	s8,8(sp)
40000a12:	c266                	sw	s9,4(sp)
40000a14:	c06a                	sw	s10,0(sp)
40000a16:	8aae                	mv	s5,a1
40000a18:	8a32                	mv	s4,a2
40000a1a:	84b6                	mv	s1,a3
40000a1c:	01276933          	or	s2,a4,s2
40000a20:	24050863          	beqz	a0,40000c70 <matrix_test+0x276>
40000a24:	00151593          	slli	a1,a0,0x1
40000a28:	88aa                	mv	a7,a0
40000a2a:	95b2                	add	a1,a1,a2
40000a2c:	40a00533          	neg	a0,a0
40000a30:	01071993          	slli	s3,a4,0x10
40000a34:	00151313          	slli	t1,a0,0x1
40000a38:	0109d993          	srli	s3,s3,0x10
40000a3c:	862e                	mv	a2,a1
40000a3e:	4b81                	li	s7,0
40000a40:	050a                	slli	a0,a0,0x2
40000a42:	00c30833          	add	a6,t1,a2
40000a46:	87c2                	mv	a5,a6
40000a48:	0007d683          	lhu	a3,0(a5)
40000a4c:	0789                	addi	a5,a5,2
40000a4e:	96ce                	add	a3,a3,s3
40000a50:	fed79f23          	sh	a3,-2(a5)
40000a54:	fef61ae3          	bne	a2,a5,40000a48 <matrix_test+0x4e>
40000a58:	001b8413          	addi	s0,s7,1
40000a5c:	40a80633          	sub	a2,a6,a0
40000a60:	00888463          	beq	a7,s0,40000a68 <matrix_test+0x6e>
40000a64:	8ba2                	mv	s7,s0
40000a66:	bff1                	j	40000a42 <matrix_test+0x48>
40000a68:	40800cb3          	neg	s9,s0
40000a6c:	4501                	li	a0,0
40000a6e:	4881                	li	a7,0
40000a70:	002c9c13          	slli	s8,s9,0x2
40000a74:	00b30833          	add	a6,t1,a1
40000a78:	00251613          	slli	a2,a0,0x2
40000a7c:	9656                	add	a2,a2,s5
40000a7e:	87c2                	mv	a5,a6
40000a80:	00079683          	lh	a3,0(a5)
40000a84:	0611                	addi	a2,a2,4
40000a86:	0789                	addi	a5,a5,2
40000a88:	02e686b3          	mul	a3,a3,a4
40000a8c:	fed62e23          	sw	a3,-4(a2)
40000a90:	feb798e3          	bne	a5,a1,40000a80 <matrix_test+0x86>
40000a94:	00188793          	addi	a5,a7,1
40000a98:	9522                	add	a0,a0,s0
40000a9a:	418805b3          	sub	a1,a6,s8
40000a9e:	01788463          	beq	a7,s7,40000aa6 <matrix_test+0xac>
40000aa2:	88be                	mv	a7,a5
40000aa4:	bfc1                	j	40000a74 <matrix_test+0x7a>
40000aa6:	00241b13          	slli	s6,s0,0x2
40000aaa:	9b56                	add	s6,s6,s5
40000aac:	885a                	mv	a6,s6
40000aae:	4501                	li	a0,0
40000ab0:	4701                	li	a4,0
40000ab2:	4601                	li	a2,0
40000ab4:	4301                	li	t1,0
40000ab6:	0c8e                	slli	s9,s9,0x3
40000ab8:	018808b3          	add	a7,a6,s8
40000abc:	87c6                	mv	a5,a7
40000abe:	a801                	j	40000ace <matrix_test+0xd4>
40000ac0:	01059513          	slli	a0,a1,0x10
40000ac4:	0791                	addi	a5,a5,4
40000ac6:	8541                	srai	a0,a0,0x10
40000ac8:	4601                	li	a2,0
40000aca:	02f80363          	beq	a6,a5,40000af0 <matrix_test+0xf6>
40000ace:	86ba                	mv	a3,a4
40000ad0:	4398                	lw	a4,0(a5)
40000ad2:	0542                	slli	a0,a0,0x10
40000ad4:	8141                	srli	a0,a0,0x10
40000ad6:	00e6a6b3          	slt	a3,a3,a4
40000ada:	963a                	add	a2,a2,a4
40000adc:	00a50593          	addi	a1,a0,10
40000ae0:	9536                	add	a0,a0,a3
40000ae2:	fcc94fe3          	blt	s2,a2,40000ac0 <matrix_test+0xc6>
40000ae6:	0542                	slli	a0,a0,0x10
40000ae8:	0791                	addi	a5,a5,4
40000aea:	8541                	srai	a0,a0,0x10
40000aec:	fef811e3          	bne	a6,a5,40000ace <matrix_test+0xd4>
40000af0:	00130793          	addi	a5,t1,1
40000af4:	41988833          	sub	a6,a7,s9
40000af8:	01730463          	beq	t1,s7,40000b00 <matrix_test+0x106>
40000afc:	833e                	mv	t1,a5
40000afe:	bf6d                	j	40000ab8 <matrix_test+0xbe>
40000b00:	4581                	li	a1,0
40000b02:	792000ef          	jal	ra,40001294 <crc16>
40000b06:	8652                	mv	a2,s4
40000b08:	8d2a                	mv	s10,a0
40000b0a:	86a6                	mv	a3,s1
40000b0c:	8522                	mv	a0,s0
40000b0e:	85d6                	mv	a1,s5
40000b10:	33c9                	jal	400008d2 <matrix_mul_vect>
40000b12:	4501                	li	a0,0
40000b14:	4701                	li	a4,0
40000b16:	4601                	li	a2,0
40000b18:	4881                	li	a7,0
40000b1a:	016c0833          	add	a6,s8,s6
40000b1e:	87c2                	mv	a5,a6
40000b20:	a801                	j	40000b30 <matrix_test+0x136>
40000b22:	01059513          	slli	a0,a1,0x10
40000b26:	0791                	addi	a5,a5,4
40000b28:	8541                	srai	a0,a0,0x10
40000b2a:	4601                	li	a2,0
40000b2c:	02fb0363          	beq	s6,a5,40000b52 <matrix_test+0x158>
40000b30:	86ba                	mv	a3,a4
40000b32:	4398                	lw	a4,0(a5)
40000b34:	0542                	slli	a0,a0,0x10
40000b36:	8141                	srli	a0,a0,0x10
40000b38:	00e6a6b3          	slt	a3,a3,a4
40000b3c:	963a                	add	a2,a2,a4
40000b3e:	00a50593          	addi	a1,a0,10
40000b42:	9536                	add	a0,a0,a3
40000b44:	fcc94fe3          	blt	s2,a2,40000b22 <matrix_test+0x128>
40000b48:	0542                	slli	a0,a0,0x10
40000b4a:	0791                	addi	a5,a5,4
40000b4c:	8541                	srai	a0,a0,0x10
40000b4e:	fefb11e3          	bne	s6,a5,40000b30 <matrix_test+0x136>
40000b52:	00188793          	addi	a5,a7,1
40000b56:	41980b33          	sub	s6,a6,s9
40000b5a:	01788463          	beq	a7,s7,40000b62 <matrix_test+0x168>
40000b5e:	88be                	mv	a7,a5
40000b60:	bf6d                	j	40000b1a <matrix_test+0x120>
40000b62:	85ea                	mv	a1,s10
40000b64:	2f05                	jal	40001294 <crc16>
40000b66:	86a6                	mv	a3,s1
40000b68:	8b2a                	mv	s6,a0
40000b6a:	8652                	mv	a2,s4
40000b6c:	8522                	mv	a0,s0
40000b6e:	85d6                	mv	a1,s5
40000b70:	334d                	jal	40000912 <matrix_mul_matrix>
40000b72:	4301                	li	t1,0
40000b74:	4501                	li	a0,0
40000b76:	4781                	li	a5,0
40000b78:	4681                	li	a3,0
40000b7a:	4881                	li	a7,0
40000b7c:	00231613          	slli	a2,t1,0x2
40000b80:	9656                	add	a2,a2,s5
40000b82:	4581                	li	a1,0
40000b84:	a809                	j	40000b96 <matrix_test+0x19c>
40000b86:	01081513          	slli	a0,a6,0x10
40000b8a:	0585                	addi	a1,a1,1
40000b8c:	8541                	srai	a0,a0,0x10
40000b8e:	4681                	li	a3,0
40000b90:	0611                	addi	a2,a2,4
40000b92:	0285f463          	bgeu	a1,s0,40000bba <matrix_test+0x1c0>
40000b96:	873e                	mv	a4,a5
40000b98:	421c                	lw	a5,0(a2)
40000b9a:	0542                	slli	a0,a0,0x10
40000b9c:	8141                	srli	a0,a0,0x10
40000b9e:	00f72733          	slt	a4,a4,a5
40000ba2:	96be                	add	a3,a3,a5
40000ba4:	00a50813          	addi	a6,a0,10
40000ba8:	953a                	add	a0,a0,a4
40000baa:	fcd94ee3          	blt	s2,a3,40000b86 <matrix_test+0x18c>
40000bae:	0542                	slli	a0,a0,0x10
40000bb0:	0585                	addi	a1,a1,1
40000bb2:	8541                	srai	a0,a0,0x10
40000bb4:	0611                	addi	a2,a2,4
40000bb6:	fe85e0e3          	bltu	a1,s0,40000b96 <matrix_test+0x19c>
40000bba:	0885                	addi	a7,a7,1
40000bbc:	9322                	add	t1,t1,s0
40000bbe:	fa88efe3          	bltu	a7,s0,40000b7c <matrix_test+0x182>
40000bc2:	85da                	mv	a1,s6
40000bc4:	2dc1                	jal	40001294 <crc16>
40000bc6:	87aa                	mv	a5,a0
40000bc8:	86a6                	mv	a3,s1
40000bca:	8522                	mv	a0,s0
40000bcc:	8652                	mv	a2,s4
40000bce:	85d6                	mv	a1,s5
40000bd0:	84be                	mv	s1,a5
40000bd2:	3375                	jal	4000097e <matrix_mul_matrix_bitextract>
40000bd4:	4301                	li	t1,0
40000bd6:	4501                	li	a0,0
40000bd8:	4781                	li	a5,0
40000bda:	4681                	li	a3,0
40000bdc:	4881                	li	a7,0
40000bde:	00231613          	slli	a2,t1,0x2
40000be2:	9656                	add	a2,a2,s5
40000be4:	4581                	li	a1,0
40000be6:	a809                	j	40000bf8 <matrix_test+0x1fe>
40000be8:	01081513          	slli	a0,a6,0x10
40000bec:	0585                	addi	a1,a1,1
40000bee:	8541                	srai	a0,a0,0x10
40000bf0:	4681                	li	a3,0
40000bf2:	0611                	addi	a2,a2,4
40000bf4:	0285f463          	bgeu	a1,s0,40000c1c <matrix_test+0x222>
40000bf8:	873e                	mv	a4,a5
40000bfa:	421c                	lw	a5,0(a2)
40000bfc:	0542                	slli	a0,a0,0x10
40000bfe:	8141                	srli	a0,a0,0x10
40000c00:	00f72733          	slt	a4,a4,a5
40000c04:	96be                	add	a3,a3,a5
40000c06:	00a50813          	addi	a6,a0,10
40000c0a:	953a                	add	a0,a0,a4
40000c0c:	fcd94ee3          	blt	s2,a3,40000be8 <matrix_test+0x1ee>
40000c10:	0542                	slli	a0,a0,0x10
40000c12:	0585                	addi	a1,a1,1
40000c14:	8541                	srai	a0,a0,0x10
40000c16:	0611                	addi	a2,a2,4
40000c18:	fe85e0e3          	bltu	a1,s0,40000bf8 <matrix_test+0x1fe>
40000c1c:	0885                	addi	a7,a7,1
40000c1e:	9322                	add	t1,t1,s0
40000c20:	fa88efe3          	bltu	a7,s0,40000bde <matrix_test+0x1e4>
40000c24:	85a6                	mv	a1,s1
40000c26:	25bd                	jal	40001294 <crc16>
40000c28:	4581                	li	a1,0
40000c2a:	4601                	li	a2,0
40000c2c:	00159793          	slli	a5,a1,0x1
40000c30:	97d2                	add	a5,a5,s4
40000c32:	4681                	li	a3,0
40000c34:	0007d703          	lhu	a4,0(a5)
40000c38:	0789                	addi	a5,a5,2
40000c3a:	0685                	addi	a3,a3,1
40000c3c:	41370733          	sub	a4,a4,s3
40000c40:	fee79f23          	sh	a4,-2(a5)
40000c44:	fe86e8e3          	bltu	a3,s0,40000c34 <matrix_test+0x23a>
40000c48:	0605                	addi	a2,a2,1
40000c4a:	95a2                	add	a1,a1,s0
40000c4c:	fe8660e3          	bltu	a2,s0,40000c2c <matrix_test+0x232>
40000c50:	50b2                	lw	ra,44(sp)
40000c52:	5422                	lw	s0,40(sp)
40000c54:	0542                	slli	a0,a0,0x10
40000c56:	5492                	lw	s1,36(sp)
40000c58:	5902                	lw	s2,32(sp)
40000c5a:	49f2                	lw	s3,28(sp)
40000c5c:	4a62                	lw	s4,24(sp)
40000c5e:	4ad2                	lw	s5,20(sp)
40000c60:	4b42                	lw	s6,16(sp)
40000c62:	4bb2                	lw	s7,12(sp)
40000c64:	4c22                	lw	s8,8(sp)
40000c66:	4c92                	lw	s9,4(sp)
40000c68:	4d02                	lw	s10,0(sp)
40000c6a:	8541                	srai	a0,a0,0x10
40000c6c:	6145                	addi	sp,sp,48
40000c6e:	8082                	ret
40000c70:	4581                	li	a1,0
40000c72:	250d                	jal	40001294 <crc16>
40000c74:	86a6                	mv	a3,s1
40000c76:	8652                	mv	a2,s4
40000c78:	842a                	mv	s0,a0
40000c7a:	85d6                	mv	a1,s5
40000c7c:	4501                	li	a0,0
40000c7e:	3991                	jal	400008d2 <matrix_mul_vect>
40000c80:	85a2                	mv	a1,s0
40000c82:	4501                	li	a0,0
40000c84:	2d01                	jal	40001294 <crc16>
40000c86:	86a6                	mv	a3,s1
40000c88:	8652                	mv	a2,s4
40000c8a:	842a                	mv	s0,a0
40000c8c:	85d6                	mv	a1,s5
40000c8e:	4501                	li	a0,0
40000c90:	3149                	jal	40000912 <matrix_mul_matrix>
40000c92:	85a2                	mv	a1,s0
40000c94:	4501                	li	a0,0
40000c96:	2bfd                	jal	40001294 <crc16>
40000c98:	842a                	mv	s0,a0
40000c9a:	85d6                	mv	a1,s5
40000c9c:	86a6                	mv	a3,s1
40000c9e:	8652                	mv	a2,s4
40000ca0:	4501                	li	a0,0
40000ca2:	39f1                	jal	4000097e <matrix_mul_matrix_bitextract>
40000ca4:	85a2                	mv	a1,s0
40000ca6:	4501                	li	a0,0
40000ca8:	23f5                	jal	40001294 <crc16>
40000caa:	b75d                	j	40000c50 <matrix_test+0x256>

40000cac <core_bench_matrix>:
40000cac:	1141                	addi	sp,sp,-16
40000cae:	c422                	sw	s0,8(sp)
40000cb0:	4514                	lw	a3,8(a0)
40000cb2:	8432                	mv	s0,a2
40000cb4:	872e                	mv	a4,a1
40000cb6:	4150                	lw	a2,4(a0)
40000cb8:	454c                	lw	a1,12(a0)
40000cba:	4108                	lw	a0,0(a0)
40000cbc:	c606                	sw	ra,12(sp)
40000cbe:	3b35                	jal	400009fa <matrix_test>
40000cc0:	85a2                	mv	a1,s0
40000cc2:	4422                	lw	s0,8(sp)
40000cc4:	40b2                	lw	ra,12(sp)
40000cc6:	0141                	addi	sp,sp,16
40000cc8:	a3f1                	j	40001294 <crc16>

40000cca <barebones_clock>:
40000cca:	300007b7          	lui	a5,0x30000
40000cce:	4388                	lw	a0,0(a5)
40000cd0:	43cc                	lw	a1,4(a5)
40000cd2:	8082                	ret

40000cd4 <start_time>:
40000cd4:	300007b7          	lui	a5,0x30000
40000cd8:	4390                	lw	a2,0(a5)
40000cda:	43d4                	lw	a3,4(a5)
40000cdc:	00002797          	auipc	a5,0x2
40000ce0:	d1c78793          	addi	a5,a5,-740 # 400029f8 <start_time_val>
40000ce4:	c390                	sw	a2,0(a5)
40000ce6:	c3d4                	sw	a3,4(a5)
40000ce8:	8082                	ret

40000cea <stop_time>:
40000cea:	300007b7          	lui	a5,0x30000
40000cee:	4390                	lw	a2,0(a5)
40000cf0:	43d4                	lw	a3,4(a5)
40000cf2:	00002797          	auipc	a5,0x2
40000cf6:	cfe78793          	addi	a5,a5,-770 # 400029f0 <stop_time_val>
40000cfa:	c390                	sw	a2,0(a5)
40000cfc:	c3d4                	sw	a3,4(a5)
40000cfe:	8082                	ret

40000d00 <get_time>:
40000d00:	00002797          	auipc	a5,0x2
40000d04:	cf078793          	addi	a5,a5,-784 # 400029f0 <stop_time_val>
40000d08:	00002717          	auipc	a4,0x2
40000d0c:	cf070713          	addi	a4,a4,-784 # 400029f8 <start_time_val>
40000d10:	438c                	lw	a1,0(a5)
40000d12:	4308                	lw	a0,0(a4)
40000d14:	43dc                	lw	a5,4(a5)
40000d16:	4358                	lw	a4,4(a4)
40000d18:	40a58533          	sub	a0,a1,a0
40000d1c:	00a5b5b3          	sltu	a1,a1,a0
40000d20:	8f99                	sub	a5,a5,a4
40000d22:	40b785b3          	sub	a1,a5,a1
40000d26:	8082                	ret

40000d28 <time_in_secs>:
40000d28:	05f5e7b7          	lui	a5,0x5f5e
40000d2c:	10078793          	addi	a5,a5,256 # 5f5e100 <_tbss_end+0x5f5e100>
40000d30:	02f55533          	divu	a0,a0,a5
40000d34:	8082                	ret

40000d36 <portable_init>:
40000d36:	1141                	addi	sp,sp,-16
40000d38:	c422                	sw	s0,8(sp)
40000d3a:	4605                	li	a2,1
40000d3c:	842a                	mv	s0,a0
40000d3e:	4585                	li	a1,1
40000d40:	36400513          	li	a0,868
40000d44:	c606                	sw	ra,12(sp)
40000d46:	5e1000ef          	jal	ra,40001b26 <uart_set_ctrl>
40000d4a:	4785                	li	a5,1
40000d4c:	00f40023          	sb	a5,0(s0)
40000d50:	40b2                	lw	ra,12(sp)
40000d52:	4422                	lw	s0,8(sp)
40000d54:	0141                	addi	sp,sp,16
40000d56:	8082                	ret

40000d58 <portable_fini>:
40000d58:	00050023          	sb	zero,0(a0)
40000d5c:	8082                	ret

40000d5e <core_init_state>:
40000d5e:	fff50813          	addi	a6,a0,-1
40000d62:	4785                	li	a5,1
40000d64:	0d07f063          	bgeu	a5,a6,40000e24 <core_init_state+0xc6>
40000d68:	0585                	addi	a1,a1,1
40000d6a:	05c2                	slli	a1,a1,0x10
40000d6c:	81c1                	srli	a1,a1,0x10
40000d6e:	1141                	addi	sp,sp,-16
40000d70:	0035d793          	srli	a5,a1,0x3
40000d74:	c622                	sw	s0,12(sp)
40000d76:	4e1d                	li	t3,7
40000d78:	0075f713          	andi	a4,a1,7
40000d7c:	4681                	li	a3,0
40000d7e:	00001e97          	auipc	t4,0x1
40000d82:	42ae8e93          	addi	t4,t4,1066 # 400021a8 <intpat>
40000d86:	4311                	li	t1,4
40000d88:	4885                	li	a7,1
40000d8a:	02c00f13          	li	t5,44
40000d8e:	8b8d                	andi	a5,a5,3
40000d90:	05c70b63          	beq	a4,t3,40000de6 <core_init_state+0x88>
40000d94:	08e36263          	bltu	t1,a4,40000e18 <core_init_state+0xba>
40000d98:	1775                	addi	a4,a4,-3
40000d9a:	0742                	slli	a4,a4,0x10
40000d9c:	078a                	slli	a5,a5,0x2
40000d9e:	8341                	srli	a4,a4,0x10
40000da0:	97f6                	add	a5,a5,t4
40000da2:	06e8e763          	bltu	a7,a4,40000e10 <core_init_state+0xb2>
40000da6:	4b9c                	lw	a5,16(a5)
40000da8:	4fa5                	li	t6,9
40000daa:	4421                	li	s0,8
40000dac:	9fb6                	add	t6,t6,a3
40000dae:	050ff463          	bgeu	t6,a6,40000df6 <core_init_state+0x98>
40000db2:	96b2                	add	a3,a3,a2
40000db4:	8736                	mv	a4,a3
40000db6:	008783b3          	add	t2,a5,s0
40000dba:	0007c283          	lbu	t0,0(a5)
40000dbe:	0785                	addi	a5,a5,1
40000dc0:	0705                	addi	a4,a4,1
40000dc2:	fe570fa3          	sb	t0,-1(a4)
40000dc6:	fe779ae3          	bne	a5,t2,40000dba <core_init_state+0x5c>
40000dca:	0585                	addi	a1,a1,1
40000dcc:	05c2                	slli	a1,a1,0x10
40000dce:	96a2                	add	a3,a3,s0
40000dd0:	81c1                	srli	a1,a1,0x10
40000dd2:	01e68023          	sb	t5,0(a3)
40000dd6:	0035d793          	srli	a5,a1,0x3
40000dda:	0075f713          	andi	a4,a1,7
40000dde:	86fe                	mv	a3,t6
40000de0:	8b8d                	andi	a5,a5,3
40000de2:	fbc719e3          	bne	a4,t3,40000d94 <core_init_state+0x36>
40000de6:	078a                	slli	a5,a5,0x2
40000de8:	4fa5                	li	t6,9
40000dea:	97f6                	add	a5,a5,t4
40000dec:	9fb6                	add	t6,t6,a3
40000dee:	5b9c                	lw	a5,48(a5)
40000df0:	4421                	li	s0,8
40000df2:	fd0fe0e3          	bltu	t6,a6,40000db2 <core_init_state+0x54>
40000df6:	00d607b3          	add	a5,a2,a3
40000dfa:	962a                	add	a2,a2,a0
40000dfc:	00a6f763          	bgeu	a3,a0,40000e0a <core_init_state+0xac>
40000e00:	00078023          	sb	zero,0(a5)
40000e04:	0785                	addi	a5,a5,1
40000e06:	fef61de3          	bne	a2,a5,40000e00 <core_init_state+0xa2>
40000e0a:	4432                	lw	s0,12(sp)
40000e0c:	0141                	addi	sp,sp,16
40000e0e:	8082                	ret
40000e10:	439c                	lw	a5,0(a5)
40000e12:	4f95                	li	t6,5
40000e14:	4411                	li	s0,4
40000e16:	bf59                	j	40000dac <core_init_state+0x4e>
40000e18:	078a                	slli	a5,a5,0x2
40000e1a:	97f6                	add	a5,a5,t4
40000e1c:	539c                	lw	a5,32(a5)
40000e1e:	4fa5                	li	t6,9
40000e20:	4421                	li	s0,8
40000e22:	b769                	j	40000dac <core_init_state+0x4e>
40000e24:	4681                	li	a3,0
40000e26:	00d607b3          	add	a5,a2,a3
40000e2a:	962a                	add	a2,a2,a0
40000e2c:	00078023          	sb	zero,0(a5)
40000e30:	0785                	addi	a5,a5,1
40000e32:	fef61de3          	bne	a2,a5,40000e2c <core_init_state+0xce>
40000e36:	8082                	ret

40000e38 <core_state_transition>:
40000e38:	411c                	lw	a5,0(a0)
40000e3a:	8e2a                	mv	t3,a0
40000e3c:	4501                	li	a0,0
40000e3e:	0007c703          	lbu	a4,0(a5)
40000e42:	883e                	mv	a6,a5
40000e44:	cb4d                	beqz	a4,40000ef6 <core_state_transition+0xbe>
40000e46:	02c00693          	li	a3,44
40000e4a:	00178813          	addi	a6,a5,1
40000e4e:	20d70a63          	beq	a4,a3,40001062 <core_state_transition+0x22a>
40000e52:	4188                	lw	a0,0(a1)
40000e54:	fd070613          	addi	a2,a4,-48
40000e58:	0ff67613          	andi	a2,a2,255
40000e5c:	48a5                	li	a7,9
40000e5e:	0505                	addi	a0,a0,1
40000e60:	08c8ee63          	bltu	a7,a2,40000efc <core_state_transition+0xc4>
40000e64:	c188                	sw	a0,0(a1)
40000e66:	0017c883          	lbu	a7,1(a5)
40000e6a:	10088c63          	beqz	a7,40000f82 <core_state_transition+0x14a>
40000e6e:	00278713          	addi	a4,a5,2
40000e72:	10d88763          	beq	a7,a3,40000f80 <core_state_transition+0x148>
40000e76:	fd088513          	addi	a0,a7,-48
40000e7a:	02e00793          	li	a5,46
40000e7e:	46a5                	li	a3,9
40000e80:	02c00613          	li	a2,44
40000e84:	0ff57513          	andi	a0,a0,255
40000e88:	02f88463          	beq	a7,a5,40000eb0 <core_state_transition+0x78>
40000e8c:	08a6ec63          	bltu	a3,a0,40000f24 <core_state_transition+0xec>
40000e90:	00184883          	lbu	a7,1(a6)
40000e94:	00170513          	addi	a0,a4,1
40000e98:	883a                	mv	a6,a4
40000e9a:	0e088363          	beqz	a7,40000f80 <core_state_transition+0x148>
40000e9e:	1ec88163          	beq	a7,a2,40001080 <core_state_transition+0x248>
40000ea2:	872a                	mv	a4,a0
40000ea4:	fd088513          	addi	a0,a7,-48
40000ea8:	0ff57513          	andi	a0,a0,255
40000eac:	fef890e3          	bne	a7,a5,40000e8c <core_state_transition+0x54>
40000eb0:	499c                	lw	a5,16(a1)
40000eb2:	4515                	li	a0,5
40000eb4:	0785                	addi	a5,a5,1
40000eb6:	c99c                	sw	a5,16(a1)
40000eb8:	00184303          	lbu	t1,1(a6)
40000ebc:	883a                	mv	a6,a4
40000ebe:	02030c63          	beqz	t1,40000ef6 <core_state_transition+0xbe>
40000ec2:	02c00793          	li	a5,44
40000ec6:	00170893          	addi	a7,a4,1
40000eca:	18f30963          	beq	t1,a5,4000105c <core_state_transition+0x224>
40000ece:	04500793          	li	a5,69
40000ed2:	46a5                	li	a3,9
40000ed4:	02c00613          	li	a2,44
40000ed8:	fd030513          	addi	a0,t1,-48
40000edc:	0df37313          	andi	t1,t1,223
40000ee0:	0ff57513          	andi	a0,a0,255
40000ee4:	0af30163          	beq	t1,a5,40000f86 <core_state_transition+0x14e>
40000ee8:	12a6f963          	bgeu	a3,a0,4000101a <core_state_transition+0x1e2>
40000eec:	49dc                	lw	a5,20(a1)
40000eee:	8846                	mv	a6,a7
40000ef0:	4505                	li	a0,1
40000ef2:	0785                	addi	a5,a5,1
40000ef4:	c9dc                	sw	a5,20(a1)
40000ef6:	010e2023          	sw	a6,0(t3)
40000efa:	8082                	ret
40000efc:	02b00613          	li	a2,43
40000f00:	02c70a63          	beq	a4,a2,40000f34 <core_state_transition+0xfc>
40000f04:	02d00613          	li	a2,45
40000f08:	02c70663          	beq	a4,a2,40000f34 <core_state_transition+0xfc>
40000f0c:	02e00613          	li	a2,46
40000f10:	12c70063          	beq	a4,a2,40001030 <core_state_transition+0x1f8>
40000f14:	41dc                	lw	a5,4(a1)
40000f16:	c188                	sw	a0,0(a1)
40000f18:	4505                	li	a0,1
40000f1a:	0785                	addi	a5,a5,1
40000f1c:	c1dc                	sw	a5,4(a1)
40000f1e:	010e2023          	sw	a6,0(t3)
40000f22:	8082                	ret
40000f24:	499c                	lw	a5,16(a1)
40000f26:	883a                	mv	a6,a4
40000f28:	4505                	li	a0,1
40000f2a:	0785                	addi	a5,a5,1
40000f2c:	c99c                	sw	a5,16(a1)
40000f2e:	010e2023          	sw	a6,0(t3)
40000f32:	8082                	ret
40000f34:	c188                	sw	a0,0(a1)
40000f36:	0017c603          	lbu	a2,1(a5)
40000f3a:	12060e63          	beqz	a2,40001076 <core_state_transition+0x23e>
40000f3e:	00278813          	addi	a6,a5,2
40000f42:	12d60a63          	beq	a2,a3,40001076 <core_state_transition+0x23e>
40000f46:	4594                	lw	a3,8(a1)
40000f48:	fd060713          	addi	a4,a2,-48
40000f4c:	0ff77713          	andi	a4,a4,255
40000f50:	4525                	li	a0,9
40000f52:	0685                	addi	a3,a3,1
40000f54:	00e57b63          	bgeu	a0,a4,40000f6a <core_state_transition+0x132>
40000f58:	02e00713          	li	a4,46
40000f5c:	0ee60563          	beq	a2,a4,40001046 <core_state_transition+0x20e>
40000f60:	c594                	sw	a3,8(a1)
40000f62:	4505                	li	a0,1
40000f64:	010e2023          	sw	a6,0(t3)
40000f68:	8082                	ret
40000f6a:	c594                	sw	a3,8(a1)
40000f6c:	0027c883          	lbu	a7,2(a5)
40000f70:	00088963          	beqz	a7,40000f82 <core_state_transition+0x14a>
40000f74:	02c00793          	li	a5,44
40000f78:	00180713          	addi	a4,a6,1
40000f7c:	eef89de3          	bne	a7,a5,40000e76 <core_state_transition+0x3e>
40000f80:	883a                	mv	a6,a4
40000f82:	4511                	li	a0,4
40000f84:	bf8d                	j	40000ef6 <core_state_transition+0xbe>
40000f86:	49dc                	lw	a5,20(a1)
40000f88:	0785                	addi	a5,a5,1
40000f8a:	c9dc                	sw	a5,20(a1)
40000f8c:	00174783          	lbu	a5,1(a4)
40000f90:	cff1                	beqz	a5,4000106c <core_state_transition+0x234>
40000f92:	02c00693          	li	a3,44
40000f96:	00188813          	addi	a6,a7,1
40000f9a:	0cd78a63          	beq	a5,a3,4000106e <core_state_transition+0x236>
40000f9e:	45d8                	lw	a4,12(a1)
40000fa0:	fd578793          	addi	a5,a5,-43
40000fa4:	0fd7f793          	andi	a5,a5,253
40000fa8:	0705                	addi	a4,a4,1
40000faa:	c5d8                	sw	a4,12(a1)
40000fac:	c789                	beqz	a5,40000fb6 <core_state_transition+0x17e>
40000fae:	4505                	li	a0,1
40000fb0:	010e2023          	sw	a6,0(t3)
40000fb4:	8082                	ret
40000fb6:	0018c783          	lbu	a5,1(a7)
40000fba:	cfc5                	beqz	a5,40001072 <core_state_transition+0x23a>
40000fbc:	00288813          	addi	a6,a7,2
40000fc0:	0ad78963          	beq	a5,a3,40001072 <core_state_transition+0x23a>
40000fc4:	4d98                	lw	a4,24(a1)
40000fc6:	fd078793          	addi	a5,a5,-48
40000fca:	0ff7f793          	andi	a5,a5,255
40000fce:	0705                	addi	a4,a4,1
40000fd0:	4625                	li	a2,9
40000fd2:	cd98                	sw	a4,24(a1)
40000fd4:	fcf66de3          	bltu	a2,a5,40000fae <core_state_transition+0x176>
40000fd8:	0028c703          	lbu	a4,2(a7)
40000fdc:	c751                	beqz	a4,40001068 <core_state_transition+0x230>
40000fde:	00388793          	addi	a5,a7,3
40000fe2:	08d70263          	beq	a4,a3,40001066 <core_state_transition+0x22e>
40000fe6:	46a5                	li	a3,9
40000fe8:	02c00513          	li	a0,44
40000fec:	fd070713          	addi	a4,a4,-48
40000ff0:	0ff77713          	andi	a4,a4,255
40000ff4:	00e6f963          	bgeu	a3,a4,40001006 <core_state_transition+0x1ce>
40000ff8:	41d8                	lw	a4,4(a1)
40000ffa:	883e                	mv	a6,a5
40000ffc:	4505                	li	a0,1
40000ffe:	00170793          	addi	a5,a4,1
40001002:	c1dc                	sw	a5,4(a1)
40001004:	bdcd                	j	40000ef6 <core_state_transition+0xbe>
40001006:	00184703          	lbu	a4,1(a6)
4000100a:	00178613          	addi	a2,a5,1
4000100e:	883e                	mv	a6,a5
40001010:	cb39                	beqz	a4,40001066 <core_state_transition+0x22e>
40001012:	06a70463          	beq	a4,a0,4000107a <core_state_transition+0x242>
40001016:	87b2                	mv	a5,a2
40001018:	bfd1                	j	40000fec <core_state_transition+0x1b4>
4000101a:	00174303          	lbu	t1,1(a4)
4000101e:	00188813          	addi	a6,a7,1
40001022:	8746                	mv	a4,a7
40001024:	02030c63          	beqz	t1,4000105c <core_state_transition+0x224>
40001028:	02c30b63          	beq	t1,a2,4000105e <core_state_transition+0x226>
4000102c:	88c2                	mv	a7,a6
4000102e:	b56d                	j	40000ed8 <core_state_transition+0xa0>
40001030:	c188                	sw	a0,0(a1)
40001032:	0017c303          	lbu	t1,1(a5)
40001036:	02030463          	beqz	t1,4000105e <core_state_transition+0x226>
4000103a:	00278893          	addi	a7,a5,2
4000103e:	00d30f63          	beq	t1,a3,4000105c <core_state_transition+0x224>
40001042:	8742                	mv	a4,a6
40001044:	b569                	j	40000ece <core_state_transition+0x96>
40001046:	c594                	sw	a3,8(a1)
40001048:	0027c303          	lbu	t1,2(a5)
4000104c:	00030963          	beqz	t1,4000105e <core_state_transition+0x226>
40001050:	02c00793          	li	a5,44
40001054:	00180893          	addi	a7,a6,1
40001058:	fef315e3          	bne	t1,a5,40001042 <core_state_transition+0x20a>
4000105c:	8846                	mv	a6,a7
4000105e:	4515                	li	a0,5
40001060:	bd59                	j	40000ef6 <core_state_transition+0xbe>
40001062:	4501                	li	a0,0
40001064:	bd49                	j	40000ef6 <core_state_transition+0xbe>
40001066:	883e                	mv	a6,a5
40001068:	451d                	li	a0,7
4000106a:	b571                	j	40000ef6 <core_state_transition+0xbe>
4000106c:	8846                	mv	a6,a7
4000106e:	450d                	li	a0,3
40001070:	b559                	j	40000ef6 <core_state_transition+0xbe>
40001072:	4519                	li	a0,6
40001074:	b549                	j	40000ef6 <core_state_transition+0xbe>
40001076:	4509                	li	a0,2
40001078:	bdbd                	j	40000ef6 <core_state_transition+0xbe>
4000107a:	8832                	mv	a6,a2
4000107c:	451d                	li	a0,7
4000107e:	bda5                	j	40000ef6 <core_state_transition+0xbe>
40001080:	882a                	mv	a6,a0
40001082:	4511                	li	a0,4
40001084:	bd8d                	j	40000ef6 <core_state_transition+0xbe>

40001086 <core_bench_state>:
40001086:	7119                	addi	sp,sp,-128
40001088:	daa6                	sw	s1,116(sp)
4000108a:	d6ce                	sw	s3,108(sp)
4000108c:	0804                	addi	s1,sp,16
4000108e:	03010993          	addi	s3,sp,48
40001092:	dca2                	sw	s0,120(sp)
40001094:	d8ca                	sw	s2,112(sp)
40001096:	d4d2                	sw	s4,104(sp)
40001098:	d2d6                	sw	s5,100(sp)
4000109a:	d0da                	sw	s6,96(sp)
4000109c:	cede                	sw	s7,92(sp)
4000109e:	8ab6                	mv	s5,a3
400010a0:	8a3a                	mv	s4,a4
400010a2:	893e                	mv	s2,a5
400010a4:	de86                	sw	ra,124(sp)
400010a6:	cce2                	sw	s8,88(sp)
400010a8:	842e                	mv	s0,a1
400010aa:	8baa                	mv	s7,a0
400010ac:	8b32                	mv	s6,a2
400010ae:	c62e                	sw	a1,12(sp)
400010b0:	0894                	addi	a3,sp,80
400010b2:	8726                	mv	a4,s1
400010b4:	87ce                	mv	a5,s3
400010b6:	0007a023          	sw	zero,0(a5)
400010ba:	00072023          	sw	zero,0(a4)
400010be:	0791                	addi	a5,a5,4
400010c0:	0711                	addi	a4,a4,4
400010c2:	fed79ae3          	bne	a5,a3,400010b6 <core_bench_state+0x30>
400010c6:	00044703          	lbu	a4,0(s0)
400010ca:	cf61                	beqz	a4,400011a2 <core_bench_state+0x11c>
400010cc:	00c10c13          	addi	s8,sp,12
400010d0:	180c                	addi	a1,sp,48
400010d2:	8562                	mv	a0,s8
400010d4:	3395                	jal	40000e38 <core_state_transition>
400010d6:	089c                	addi	a5,sp,80
400010d8:	00251593          	slli	a1,a0,0x2
400010dc:	95be                	add	a1,a1,a5
400010de:	4732                	lw	a4,12(sp)
400010e0:	fc05a783          	lw	a5,-64(a1)
400010e4:	00074703          	lbu	a4,0(a4)
400010e8:	0785                	addi	a5,a5,1
400010ea:	fcf5a023          	sw	a5,-64(a1)
400010ee:	f36d                	bnez	a4,400010d0 <core_bench_state+0x4a>
400010f0:	c622                	sw	s0,12(sp)
400010f2:	9ba2                	add	s7,s7,s0
400010f4:	00044703          	lbu	a4,0(s0)
400010f8:	0b747a63          	bgeu	s0,s7,400011ac <core_bench_state+0x126>
400010fc:	87a2                	mv	a5,s0
400010fe:	02c00613          	li	a2,44
40001102:	a019                	j	40001108 <core_bench_state+0x82>
40001104:	0007c703          	lbu	a4,0(a5)
40001108:	016746b3          	xor	a3,a4,s6
4000110c:	00c70463          	beq	a4,a2,40001114 <core_bench_state+0x8e>
40001110:	00d78023          	sb	a3,0(a5)
40001114:	47b2                	lw	a5,12(sp)
40001116:	97d2                	add	a5,a5,s4
40001118:	c63e                	sw	a5,12(sp)
4000111a:	ff77e5e3          	bltu	a5,s7,40001104 <core_bench_state+0x7e>
4000111e:	00044783          	lbu	a5,0(s0)
40001122:	c622                	sw	s0,12(sp)
40001124:	00c10c13          	addi	s8,sp,12
40001128:	c785                	beqz	a5,40001150 <core_bench_state+0xca>
4000112a:	180c                	addi	a1,sp,48
4000112c:	8562                	mv	a0,s8
4000112e:	3329                	jal	40000e38 <core_state_transition>
40001130:	089c                	addi	a5,sp,80
40001132:	00251613          	slli	a2,a0,0x2
40001136:	963e                	add	a2,a2,a5
40001138:	4732                	lw	a4,12(sp)
4000113a:	fc062783          	lw	a5,-64(a2)
4000113e:	00074703          	lbu	a4,0(a4)
40001142:	0785                	addi	a5,a5,1
40001144:	fcf62023          	sw	a5,-64(a2)
40001148:	f36d                	bnez	a4,4000112a <core_bench_state+0xa4>
4000114a:	c622                	sw	s0,12(sp)
4000114c:	03747163          	bgeu	s0,s7,4000116e <core_bench_state+0xe8>
40001150:	02c00693          	li	a3,44
40001154:	00044783          	lbu	a5,0(s0)
40001158:	0157c733          	xor	a4,a5,s5
4000115c:	00d78463          	beq	a5,a3,40001164 <core_bench_state+0xde>
40001160:	00e40023          	sb	a4,0(s0)
40001164:	4432                	lw	s0,12(sp)
40001166:	9452                	add	s0,s0,s4
40001168:	c622                	sw	s0,12(sp)
4000116a:	ff7465e3          	bltu	s0,s7,40001154 <core_bench_state+0xce>
4000116e:	02048413          	addi	s0,s1,32
40001172:	4088                	lw	a0,0(s1)
40001174:	85ca                	mv	a1,s2
40001176:	0491                	addi	s1,s1,4
40001178:	2201                	jal	40001278 <crcu32>
4000117a:	85aa                	mv	a1,a0
4000117c:	0009a503          	lw	a0,0(s3)
40001180:	0991                	addi	s3,s3,4
40001182:	28dd                	jal	40001278 <crcu32>
40001184:	892a                	mv	s2,a0
40001186:	fe9416e3          	bne	s0,s1,40001172 <core_bench_state+0xec>
4000118a:	50f6                	lw	ra,124(sp)
4000118c:	5466                	lw	s0,120(sp)
4000118e:	54d6                	lw	s1,116(sp)
40001190:	5946                	lw	s2,112(sp)
40001192:	59b6                	lw	s3,108(sp)
40001194:	5a26                	lw	s4,104(sp)
40001196:	5a96                	lw	s5,100(sp)
40001198:	5b06                	lw	s6,96(sp)
4000119a:	4bf6                	lw	s7,92(sp)
4000119c:	4c66                	lw	s8,88(sp)
4000119e:	6109                	addi	sp,sp,128
400011a0:	8082                	ret
400011a2:	c622                	sw	s0,12(sp)
400011a4:	9ba2                	add	s7,s7,s0
400011a6:	f5746be3          	bltu	s0,s7,400010fc <core_bench_state+0x76>
400011aa:	b7d1                	j	4000116e <core_bench_state+0xe8>
400011ac:	ff3d                	bnez	a4,4000112a <core_bench_state+0xa4>
400011ae:	b7c1                	j	4000116e <core_bench_state+0xe8>

400011b0 <get_seed_32>:
400011b0:	4795                	li	a5,5
400011b2:	04a7e263          	bltu	a5,a0,400011f6 <get_seed_32+0x46>
400011b6:	00001717          	auipc	a4,0x1
400011ba:	03270713          	addi	a4,a4,50 # 400021e8 <errpat+0x10>
400011be:	050a                	slli	a0,a0,0x2
400011c0:	953a                	add	a0,a0,a4
400011c2:	411c                	lw	a5,0(a0)
400011c4:	97ba                	add	a5,a5,a4
400011c6:	8782                	jr	a5
400011c8:	00002517          	auipc	a0,0x2
400011cc:	83852503          	lw	a0,-1992(a0) # 40002a00 <seed5_volatile>
400011d0:	8082                	ret
400011d2:	00002517          	auipc	a0,0x2
400011d6:	83652503          	lw	a0,-1994(a0) # 40002a08 <seed1_volatile>
400011da:	8082                	ret
400011dc:	00002517          	auipc	a0,0x2
400011e0:	82852503          	lw	a0,-2008(a0) # 40002a04 <seed2_volatile>
400011e4:	8082                	ret
400011e6:	8081a503          	lw	a0,-2040(gp) # 400029d0 <seed3_volatile>
400011ea:	8082                	ret
400011ec:	00001517          	auipc	a0,0x1
400011f0:	7e052503          	lw	a0,2016(a0) # 400029cc <seed4_volatile>
400011f4:	8082                	ret
400011f6:	4501                	li	a0,0
400011f8:	8082                	ret

400011fa <crcu8>:
400011fa:	86aa                	mv	a3,a0
400011fc:	852e                	mv	a0,a1
400011fe:	75e9                	lui	a1,0xffffa
40001200:	47a1                	li	a5,8
40001202:	0585                	addi	a1,a1,1
40001204:	00d54733          	xor	a4,a0,a3
40001208:	17fd                	addi	a5,a5,-1
4000120a:	8105                	srli	a0,a0,0x1
4000120c:	8b05                	andi	a4,a4,1
4000120e:	0ff7f793          	andi	a5,a5,255
40001212:	00b54633          	xor	a2,a0,a1
40001216:	8285                	srli	a3,a3,0x1
40001218:	c701                	beqz	a4,40001220 <crcu8+0x26>
4000121a:	01061513          	slli	a0,a2,0x10
4000121e:	8141                	srli	a0,a0,0x10
40001220:	f3f5                	bnez	a5,40001204 <crcu8+0xa>
40001222:	8082                	ret

40001224 <crcu16>:
40001224:	86aa                	mv	a3,a0
40001226:	7869                	lui	a6,0xffffa
40001228:	852e                	mv	a0,a1
4000122a:	0ff6f613          	andi	a2,a3,255
4000122e:	47a1                	li	a5,8
40001230:	0805                	addi	a6,a6,1
40001232:	00c54733          	xor	a4,a0,a2
40001236:	17fd                	addi	a5,a5,-1
40001238:	8105                	srli	a0,a0,0x1
4000123a:	8b05                	andi	a4,a4,1
4000123c:	0ff7f793          	andi	a5,a5,255
40001240:	010545b3          	xor	a1,a0,a6
40001244:	8205                	srli	a2,a2,0x1
40001246:	c701                	beqz	a4,4000124e <crcu16+0x2a>
40001248:	01059513          	slli	a0,a1,0x10
4000124c:	8141                	srli	a0,a0,0x10
4000124e:	f3f5                	bnez	a5,40001232 <crcu16+0xe>
40001250:	75e9                	lui	a1,0xffffa
40001252:	82a1                	srli	a3,a3,0x8
40001254:	47a1                	li	a5,8
40001256:	0585                	addi	a1,a1,1
40001258:	00d54733          	xor	a4,a0,a3
4000125c:	17fd                	addi	a5,a5,-1
4000125e:	8105                	srli	a0,a0,0x1
40001260:	8b05                	andi	a4,a4,1
40001262:	0ff7f793          	andi	a5,a5,255
40001266:	00b54633          	xor	a2,a0,a1
4000126a:	8285                	srli	a3,a3,0x1
4000126c:	c701                	beqz	a4,40001274 <crcu16+0x50>
4000126e:	01061513          	slli	a0,a2,0x10
40001272:	8141                	srli	a0,a0,0x10
40001274:	f3f5                	bnez	a5,40001258 <crcu16+0x34>
40001276:	8082                	ret

40001278 <crcu32>:
40001278:	1141                	addi	sp,sp,-16
4000127a:	c422                	sw	s0,8(sp)
4000127c:	842a                	mv	s0,a0
4000127e:	0542                	slli	a0,a0,0x10
40001280:	8141                	srli	a0,a0,0x10
40001282:	c606                	sw	ra,12(sp)
40001284:	3745                	jal	40001224 <crcu16>
40001286:	85aa                	mv	a1,a0
40001288:	01045513          	srli	a0,s0,0x10
4000128c:	4422                	lw	s0,8(sp)
4000128e:	40b2                	lw	ra,12(sp)
40001290:	0141                	addi	sp,sp,16
40001292:	bf49                	j	40001224 <crcu16>

40001294 <crc16>:
40001294:	0542                	slli	a0,a0,0x10
40001296:	8141                	srli	a0,a0,0x10
40001298:	b771                	j	40001224 <crcu16>

4000129a <check_data_types>:
4000129a:	4501                	li	a0,0
4000129c:	8082                	ret

4000129e <number>:
4000129e:	711d                	addi	sp,sp,-96
400012a0:	cea2                	sw	s0,92(sp)
400012a2:	cca6                	sw	s1,88(sp)
400012a4:	0407f813          	andi	a6,a5,64
400012a8:	00001e17          	auipc	t3,0x1
400012ac:	674e0e13          	addi	t3,t3,1652 # 4000291c <errpat+0x744>
400012b0:	00081663          	bnez	a6,400012bc <number+0x1e>
400012b4:	00001e17          	auipc	t3,0x1
400012b8:	640e0e13          	addi	t3,t3,1600 # 400028f4 <errpat+0x71c>
400012bc:	0107f413          	andi	s0,a5,16
400012c0:	14040263          	beqz	s0,40001404 <number+0x166>
400012c4:	9bf9                	andi	a5,a5,-2
400012c6:	84a2                	mv	s1,s0
400012c8:	0027f813          	andi	a6,a5,2
400012cc:	02000f93          	li	t6,32
400012d0:	0207f393          	andi	t2,a5,32
400012d4:	14080663          	beqz	a6,40001420 <number+0x182>
400012d8:	1405c663          	bltz	a1,40001424 <number+0x186>
400012dc:	0047f813          	andi	a6,a5,4
400012e0:	16081c63          	bnez	a6,40001458 <number+0x1ba>
400012e4:	8ba1                	andi	a5,a5,8
400012e6:	4281                	li	t0,0
400012e8:	c781                	beqz	a5,400012f0 <number+0x52>
400012ea:	16fd                	addi	a3,a3,-1
400012ec:	02000293          	li	t0,32
400012f0:	00038a63          	beqz	t2,40001304 <number+0x66>
400012f4:	47c1                	li	a5,16
400012f6:	16f60f63          	beq	a2,a5,40001474 <number+0x1d6>
400012fa:	ff860793          	addi	a5,a2,-8
400012fe:	0017b793          	seqz	a5,a5
40001302:	8e9d                	sub	a3,a3,a5
40001304:	12059763          	bnez	a1,40001432 <number+0x194>
40001308:	03000793          	li	a5,48
4000130c:	00f10623          	sb	a5,12(sp)
40001310:	4301                	li	t1,0
40001312:	03000813          	li	a6,48
40001316:	4885                	li	a7,1
40001318:	007c                	addi	a5,sp,12
4000131a:	8ec6                	mv	t4,a7
4000131c:	00e8d363          	bge	a7,a4,40001322 <number+0x84>
40001320:	8eba                	mv	t4,a4
40001322:	41d68e33          	sub	t3,a3,t4
40001326:	fffe0593          	addi	a1,t3,-1
4000132a:	ec91                	bnez	s1,40001346 <number+0xa8>
4000132c:	01c506b3          	add	a3,a0,t3
40001330:	02000713          	li	a4,32
40001334:	15c05a63          	blez	t3,40001488 <number+0x1ea>
40001338:	0505                	addi	a0,a0,1
4000133a:	fee50fa3          	sb	a4,-1(a0)
4000133e:	fed51de3          	bne	a0,a3,40001338 <number+0x9a>
40001342:	55f9                	li	a1,-2
40001344:	5e7d                	li	t3,-1
40001346:	00028563          	beqz	t0,40001350 <number+0xb2>
4000134a:	00550023          	sb	t0,0(a0)
4000134e:	0505                	addi	a0,a0,1
40001350:	00038863          	beqz	t2,40001360 <number+0xc2>
40001354:	4721                	li	a4,8
40001356:	12e60163          	beq	a2,a4,40001478 <number+0x1da>
4000135a:	4741                	li	a4,16
4000135c:	10e60263          	beq	a2,a4,40001460 <number+0x1c2>
40001360:	e80d                	bnez	s0,40001392 <number+0xf4>
40001362:	862a                	mv	a2,a0
40001364:	4705                	li	a4,1
40001366:	13c05663          	blez	t3,40001492 <number+0x1f4>
4000136a:	0605                	addi	a2,a2,1
4000136c:	40c706b3          	sub	a3,a4,a2
40001370:	96ae                	add	a3,a3,a1
40001372:	96aa                	add	a3,a3,a0
40001374:	fff60fa3          	sb	t6,-1(a2)
40001378:	fed049e3          	bgtz	a3,4000136a <number+0xcc>
4000137c:	fff5c713          	not	a4,a1
40001380:	877d                	srai	a4,a4,0x1f
40001382:	8f6d                	and	a4,a4,a1
40001384:	15fd                	addi	a1,a1,-1
40001386:	40e58e33          	sub	t3,a1,a4
4000138a:	0705                	addi	a4,a4,1
4000138c:	953a                	add	a0,a0,a4
4000138e:	fffe0593          	addi	a1,t3,-1
40001392:	411e8733          	sub	a4,t4,a7
40001396:	972a                	add	a4,a4,a0
40001398:	03000693          	li	a3,48
4000139c:	0fd8d463          	bge	a7,t4,40001484 <number+0x1e6>
400013a0:	0505                	addi	a0,a0,1
400013a2:	fed50fa3          	sb	a3,-1(a0)
400013a6:	fea71de3          	bne	a4,a0,400013a0 <number+0x102>
400013aa:	00678633          	add	a2,a5,t1
400013ae:	86ba                	mv	a3,a4
400013b0:	4505                	li	a0,1
400013b2:	a019                	j	400013b8 <number+0x11a>
400013b4:	00064803          	lbu	a6,0(a2)
400013b8:	0685                	addi	a3,a3,1
400013ba:	40d507b3          	sub	a5,a0,a3
400013be:	979a                	add	a5,a5,t1
400013c0:	97ba                	add	a5,a5,a4
400013c2:	ff068fa3          	sb	a6,-1(a3)
400013c6:	167d                	addi	a2,a2,-1
400013c8:	fef046e3          	bgtz	a5,400013b4 <number+0x116>
400013cc:	00130513          	addi	a0,t1,1
400013d0:	953a                	add	a0,a0,a4
400013d2:	03c05563          	blez	t3,400013fc <number+0x15e>
400013d6:	872a                	mv	a4,a0
400013d8:	02000613          	li	a2,32
400013dc:	4685                	li	a3,1
400013de:	0705                	addi	a4,a4,1
400013e0:	40e687b3          	sub	a5,a3,a4
400013e4:	97ae                	add	a5,a5,a1
400013e6:	97aa                	add	a5,a5,a0
400013e8:	fec70fa3          	sb	a2,-1(a4)
400013ec:	fef049e3          	bgtz	a5,400013de <number+0x140>
400013f0:	fff5c793          	not	a5,a1
400013f4:	87fd                	srai	a5,a5,0x1f
400013f6:	8dfd                	and	a1,a1,a5
400013f8:	0585                	addi	a1,a1,1
400013fa:	952e                	add	a0,a0,a1
400013fc:	4476                	lw	s0,92(sp)
400013fe:	44e6                	lw	s1,88(sp)
40001400:	6125                	addi	sp,sp,96
40001402:	8082                	ret
40001404:	0017f813          	andi	a6,a5,1
40001408:	0117f493          	andi	s1,a5,17
4000140c:	03000f93          	li	t6,48
40001410:	ea080ce3          	beqz	a6,400012c8 <number+0x2a>
40001414:	0027f813          	andi	a6,a5,2
40001418:	0207f393          	andi	t2,a5,32
4000141c:	ea081ee3          	bnez	a6,400012d8 <number+0x3a>
40001420:	4281                	li	t0,0
40001422:	b5f9                	j	400012f0 <number+0x52>
40001424:	40b005b3          	neg	a1,a1
40001428:	16fd                	addi	a3,a3,-1
4000142a:	02d00293          	li	t0,45
4000142e:	ec0393e3          	bnez	t2,400012f4 <number+0x56>
40001432:	4881                	li	a7,0
40001434:	007c                	addi	a5,sp,12
40001436:	02c5f833          	remu	a6,a1,a2
4000143a:	8346                	mv	t1,a7
4000143c:	0885                	addi	a7,a7,1
4000143e:	01178f33          	add	t5,a5,a7
40001442:	8eae                	mv	t4,a1
40001444:	9872                	add	a6,a6,t3
40001446:	00084803          	lbu	a6,0(a6) # ffffa000 <_end+0xbfff6e24>
4000144a:	02c5d5b3          	divu	a1,a1,a2
4000144e:	ff0f0fa3          	sb	a6,-1(t5)
40001452:	fecef2e3          	bgeu	t4,a2,40001436 <number+0x198>
40001456:	b5d1                	j	4000131a <number+0x7c>
40001458:	16fd                	addi	a3,a3,-1
4000145a:	02b00293          	li	t0,43
4000145e:	bd49                	j	400012f0 <number+0x52>
40001460:	03000713          	li	a4,48
40001464:	00e50023          	sb	a4,0(a0)
40001468:	07800713          	li	a4,120
4000146c:	00e500a3          	sb	a4,1(a0)
40001470:	0509                	addi	a0,a0,2
40001472:	b5fd                	j	40001360 <number+0xc2>
40001474:	16f9                	addi	a3,a3,-2
40001476:	b579                	j	40001304 <number+0x66>
40001478:	03000713          	li	a4,48
4000147c:	00e50023          	sb	a4,0(a0)
40001480:	0505                	addi	a0,a0,1
40001482:	bdf9                	j	40001360 <number+0xc2>
40001484:	872a                	mv	a4,a0
40001486:	b715                	j	400013aa <number+0x10c>
40001488:	ffee0713          	addi	a4,t3,-2
4000148c:	8e2e                	mv	t3,a1
4000148e:	85ba                	mv	a1,a4
40001490:	bd5d                	j	40001346 <number+0xa8>
40001492:	8e2e                	mv	t3,a1
40001494:	15fd                	addi	a1,a1,-1
40001496:	bdf5                	j	40001392 <number+0xf4>

40001498 <ee_printf>:
40001498:	7159                	addi	sp,sp,-112
4000149a:	da56                	sw	s5,52(sp)
4000149c:	d85a                	sw	s6,48(sp)
4000149e:	c686                	sw	ra,76(sp)
400014a0:	c4a2                	sw	s0,72(sp)
400014a2:	c2a6                	sw	s1,68(sp)
400014a4:	c0ca                	sw	s2,64(sp)
400014a6:	de4e                	sw	s3,60(sp)
400014a8:	dc52                	sw	s4,56(sp)
400014aa:	d65e                	sw	s7,44(sp)
400014ac:	d462                	sw	s8,40(sp)
400014ae:	d266                	sw	s9,36(sp)
400014b0:	d06a                	sw	s10,32(sp)
400014b2:	caae                	sw	a1,84(sp)
400014b4:	ccb2                	sw	a2,88(sp)
400014b6:	ceb6                	sw	a3,92(sp)
400014b8:	d0ba                	sw	a4,96(sp)
400014ba:	d2be                	sw	a5,100(sp)
400014bc:	d4c2                	sw	a6,104(sp)
400014be:	d6c6                	sw	a7,108(sp)
400014c0:	00054783          	lbu	a5,0(a0)
400014c4:	05410a93          	addi	s5,sp,84
400014c8:	80c18b13          	addi	s6,gp,-2036 # 400029d4 <buf>
400014cc:	c256                	sw	s5,4(sp)
400014ce:	832a                	mv	t1,a0
400014d0:	000b2503          	lw	a0,0(s6)
400014d4:	cf95                	beqz	a5,40001510 <ee_printf+0x78>
400014d6:	00001a17          	auipc	s4,0x1
400014da:	d2aa0a13          	addi	s4,s4,-726 # 40002200 <errpat+0x28>
400014de:	02e00b93          	li	s7,46
400014e2:	00001997          	auipc	s3,0x1
400014e6:	d6298993          	addi	s3,s3,-670 # 40002244 <errpat+0x6c>
400014ea:	00001497          	auipc	s1,0x1
400014ee:	40a48493          	addi	s1,s1,1034 # 400028f4 <errpat+0x71c>
400014f2:	00001417          	auipc	s0,0x1
400014f6:	e3240413          	addi	s0,s0,-462 # 40002324 <errpat+0x14c>
400014fa:	02500713          	li	a4,37
400014fe:	04e78863          	beq	a5,a4,4000154e <ee_printf+0xb6>
40001502:	00f50023          	sb	a5,0(a0)
40001506:	00134783          	lbu	a5,1(t1)
4000150a:	0505                	addi	a0,a0,1
4000150c:	0305                	addi	t1,t1,1
4000150e:	f7f5                	bnez	a5,400014fa <ee_printf+0x62>
40001510:	00050023          	sb	zero,0(a0)
40001514:	000b2783          	lw	a5,0(s6)
40001518:	4401                	li	s0,0
4000151a:	0007c503          	lbu	a0,0(a5)
4000151e:	c909                	beqz	a0,40001530 <ee_printf+0x98>
40001520:	2591                	jal	40001b64 <uart_write>
40001522:	000b2783          	lw	a5,0(s6)
40001526:	0405                	addi	s0,s0,1
40001528:	97a2                	add	a5,a5,s0
4000152a:	0007c503          	lbu	a0,0(a5)
4000152e:	f96d                	bnez	a0,40001520 <ee_printf+0x88>
40001530:	40b6                	lw	ra,76(sp)
40001532:	8522                	mv	a0,s0
40001534:	4426                	lw	s0,72(sp)
40001536:	4496                	lw	s1,68(sp)
40001538:	4906                	lw	s2,64(sp)
4000153a:	59f2                	lw	s3,60(sp)
4000153c:	5a62                	lw	s4,56(sp)
4000153e:	5ad2                	lw	s5,52(sp)
40001540:	5b42                	lw	s6,48(sp)
40001542:	5bb2                	lw	s7,44(sp)
40001544:	5c22                	lw	s8,40(sp)
40001546:	5c92                	lw	s9,36(sp)
40001548:	5d02                	lw	s10,32(sp)
4000154a:	6165                	addi	sp,sp,112
4000154c:	8082                	ret
4000154e:	4781                	li	a5,0
40001550:	46c1                	li	a3,16
40001552:	00134583          	lbu	a1,1(t1)
40001556:	00130913          	addi	s2,t1,1
4000155a:	fe058713          	addi	a4,a1,-32 # ffff9fe0 <_end+0xbfff6e04>
4000155e:	0ff77713          	andi	a4,a4,255
40001562:	00e6e763          	bltu	a3,a4,40001570 <ee_printf+0xd8>
40001566:	070a                	slli	a4,a4,0x2
40001568:	9752                	add	a4,a4,s4
4000156a:	4318                	lw	a4,0(a4)
4000156c:	9752                	add	a4,a4,s4
4000156e:	8702                	jr	a4
40001570:	fd058713          	addi	a4,a1,-48
40001574:	0ff77713          	andi	a4,a4,255
40001578:	46a5                	li	a3,9
4000157a:	0ce6f463          	bgeu	a3,a4,40001642 <ee_printf+0x1aa>
4000157e:	02a00713          	li	a4,42
40001582:	56fd                	li	a3,-1
40001584:	0ee58263          	beq	a1,a4,40001668 <ee_printf+0x1d0>
40001588:	577d                	li	a4,-1
4000158a:	09758a63          	beq	a1,s7,4000161e <ee_printf+0x186>
4000158e:	0df5f613          	andi	a2,a1,223
40001592:	04c00813          	li	a6,76
40001596:	05060363          	beq	a2,a6,400015dc <ee_printf+0x144>
4000159a:	fbf58613          	addi	a2,a1,-65
4000159e:	0ff67613          	andi	a2,a2,255
400015a2:	03700813          	li	a6,55
400015a6:	04c86e63          	bltu	a6,a2,40001602 <ee_printf+0x16a>
400015aa:	060a                	slli	a2,a2,0x2
400015ac:	964e                	add	a2,a2,s3
400015ae:	4210                	lw	a2,0(a2)
400015b0:	964e                	add	a2,a2,s3
400015b2:	8602                	jr	a2
400015b4:	0017e793          	ori	a5,a5,1
400015b8:	834a                	mv	t1,s2
400015ba:	bf61                	j	40001552 <ee_printf+0xba>
400015bc:	0107e793          	ori	a5,a5,16
400015c0:	834a                	mv	t1,s2
400015c2:	bf41                	j	40001552 <ee_printf+0xba>
400015c4:	0047e793          	ori	a5,a5,4
400015c8:	834a                	mv	t1,s2
400015ca:	b761                	j	40001552 <ee_printf+0xba>
400015cc:	0207e793          	ori	a5,a5,32
400015d0:	834a                	mv	t1,s2
400015d2:	b741                	j	40001552 <ee_printf+0xba>
400015d4:	0087e793          	ori	a5,a5,8
400015d8:	834a                	mv	t1,s2
400015da:	bfa5                	j	40001552 <ee_printf+0xba>
400015dc:	00194803          	lbu	a6,1(s2) # fffff001 <_end+0xbfffbe25>
400015e0:	03700313          	li	t1,55
400015e4:	00190893          	addi	a7,s2,1
400015e8:	fbf80613          	addi	a2,a6,-65
400015ec:	0ff67613          	andi	a2,a2,255
400015f0:	00c36763          	bltu	t1,a2,400015fe <ee_printf+0x166>
400015f4:	060a                	slli	a2,a2,0x2
400015f6:	9622                	add	a2,a2,s0
400015f8:	4210                	lw	a2,0(a2)
400015fa:	9622                	add	a2,a2,s0
400015fc:	8602                	jr	a2
400015fe:	85c2                	mv	a1,a6
40001600:	8946                	mv	s2,a7
40001602:	02500713          	li	a4,37
40001606:	00150793          	addi	a5,a0,1
4000160a:	42e58663          	beq	a1,a4,40001a36 <ee_printf+0x59e>
4000160e:	00e50023          	sb	a4,0(a0)
40001612:	00094703          	lbu	a4,0(s2)
40001616:	4a071f63          	bnez	a4,40001ad4 <ee_printf+0x63c>
4000161a:	853e                	mv	a0,a5
4000161c:	bdd5                	j	40001510 <ee_printf+0x78>
4000161e:	00194583          	lbu	a1,1(s2)
40001622:	4625                	li	a2,9
40001624:	00190813          	addi	a6,s2,1
40001628:	fd058713          	addi	a4,a1,-48
4000162c:	0ff77713          	andi	a4,a4,255
40001630:	3ae67763          	bgeu	a2,a4,400019de <ee_printf+0x546>
40001634:	02a00713          	li	a4,42
40001638:	3ce58b63          	beq	a1,a4,40001a0e <ee_printf+0x576>
4000163c:	8942                	mv	s2,a6
4000163e:	4701                	li	a4,0
40001640:	b7b9                	j	4000158e <ee_printf+0xf6>
40001642:	4681                	li	a3,0
40001644:	4625                	li	a2,9
40001646:	00269713          	slli	a4,a3,0x2
4000164a:	96ba                	add	a3,a3,a4
4000164c:	0905                	addi	s2,s2,1
4000164e:	0686                	slli	a3,a3,0x1
40001650:	96ae                	add	a3,a3,a1
40001652:	00094583          	lbu	a1,0(s2)
40001656:	fd068693          	addi	a3,a3,-48
4000165a:	fd058713          	addi	a4,a1,-48
4000165e:	0ff77713          	andi	a4,a4,255
40001662:	fee672e3          	bgeu	a2,a4,40001646 <ee_printf+0x1ae>
40001666:	b70d                	j	40001588 <ee_printf+0xf0>
40001668:	000aa683          	lw	a3,0(s5)
4000166c:	00234583          	lbu	a1,2(t1)
40001670:	00230913          	addi	s2,t1,2
40001674:	0a91                	addi	s5,s5,4
40001676:	f006d9e3          	bgez	a3,40001588 <ee_printf+0xf0>
4000167a:	40d006b3          	neg	a3,a3
4000167e:	0107e793          	ori	a5,a5,16
40001682:	b719                	j	40001588 <ee_printf+0xf0>
40001684:	004a8813          	addi	a6,s5,4
40001688:	4641                	li	a2,16
4000168a:	000aa583          	lw	a1,0(s5)
4000168e:	8ac2                	mv	s5,a6
40001690:	3139                	jal	4000129e <number>
40001692:	00194783          	lbu	a5,1(s2)
40001696:	00190313          	addi	t1,s2,1
4000169a:	e60790e3          	bnez	a5,400014fa <ee_printf+0x62>
4000169e:	bd8d                	j	40001510 <ee_printf+0x78>
400016a0:	004a8813          	addi	a6,s5,4
400016a4:	4629                	li	a2,10
400016a6:	b7d5                	j	4000168a <ee_printf+0x1f2>
400016a8:	8946                	mv	s2,a7
400016aa:	000aa603          	lw	a2,0(s5)
400016ae:	0a91                	addi	s5,s5,4
400016b0:	3a060163          	beqz	a2,40001a52 <ee_printf+0x5ba>
400016b4:	00064583          	lbu	a1,0(a2)
400016b8:	3e058763          	beqz	a1,40001aa6 <ee_printf+0x60e>
400016bc:	3e070563          	beqz	a4,40001aa6 <ee_printf+0x60e>
400016c0:	85b2                	mv	a1,a2
400016c2:	a029                	j	400016cc <ee_printf+0x234>
400016c4:	40e58833          	sub	a6,a1,a4
400016c8:	00c80763          	beq	a6,a2,400016d6 <ee_printf+0x23e>
400016cc:	0015c803          	lbu	a6,1(a1)
400016d0:	0585                	addi	a1,a1,1
400016d2:	fe0819e3          	bnez	a6,400016c4 <ee_printf+0x22c>
400016d6:	8bc1                	andi	a5,a5,16
400016d8:	8d91                	sub	a1,a1,a2
400016da:	38078e63          	beqz	a5,40001a76 <ee_printf+0x5de>
400016de:	40b05763          	blez	a1,40001aec <ee_printf+0x654>
400016e2:	00b60833          	add	a6,a2,a1
400016e6:	87aa                	mv	a5,a0
400016e8:	00064703          	lbu	a4,0(a2)
400016ec:	0605                	addi	a2,a2,1
400016ee:	0785                	addi	a5,a5,1
400016f0:	fee78fa3          	sb	a4,-1(a5)
400016f4:	ff061ae3          	bne	a2,a6,400016e8 <ee_printf+0x250>
400016f8:	00b50733          	add	a4,a0,a1
400016fc:	40b68533          	sub	a0,a3,a1
40001700:	00190313          	addi	t1,s2,1
40001704:	953a                	add	a0,a0,a4
40001706:	02000793          	li	a5,32
4000170a:	3ad5dd63          	bge	a1,a3,40001ac4 <ee_printf+0x62c>
4000170e:	0705                	addi	a4,a4,1
40001710:	fef70fa3          	sb	a5,-1(a4)
40001714:	fea71de3          	bne	a4,a0,4000170e <ee_printf+0x276>
40001718:	00194783          	lbu	a5,1(s2)
4000171c:	dc079fe3          	bnez	a5,400014fa <ee_printf+0x62>
40001720:	bbc5                	j	40001510 <ee_printf+0x78>
40001722:	8946                	mv	s2,a7
40001724:	567d                	li	a2,-1
40001726:	30c68463          	beq	a3,a2,40001a2e <ee_printf+0x596>
4000172a:	000aa583          	lw	a1,0(s5)
4000172e:	4641                	li	a2,16
40001730:	0a91                	addi	s5,s5,4
40001732:	36b5                	jal	4000129e <number>
40001734:	00194783          	lbu	a5,1(s2)
40001738:	00190313          	addi	t1,s2,1
4000173c:	da079fe3          	bnez	a5,400014fa <ee_printf+0x62>
40001740:	bbc1                	j	40001510 <ee_printf+0x78>
40001742:	004a8813          	addi	a6,s5,4
40001746:	4621                	li	a2,8
40001748:	b789                	j	4000168a <ee_printf+0x1f2>
4000174a:	0407e793          	ori	a5,a5,64
4000174e:	004a8813          	addi	a6,s5,4
40001752:	4641                	li	a2,16
40001754:	bf1d                	j	4000168a <ee_printf+0x1f2>
40001756:	000aa703          	lw	a4,0(s5)
4000175a:	0407e793          	ori	a5,a5,64
4000175e:	0a91                	addi	s5,s5,4
40001760:	00074583          	lbu	a1,0(a4)
40001764:	4801                	li	a6,0
40001766:	00470893          	addi	a7,a4,4
4000176a:	06300e93          	li	t4,99
4000176e:	4fa5                	li	t6,9
40001770:	4329                	li	t1,10
40001772:	06400f13          	li	t5,100
40001776:	03000e13          	li	t3,48
4000177a:	00180613          	addi	a2,a6,1
4000177e:	e19d                	bnez	a1,400017a4 <ee_printf+0x30c>
40001780:	100c                	addi	a1,sp,32
40001782:	982e                	add	a6,a6,a1
40001784:	ffc80423          	sb	t3,-24(a6)
40001788:	0705                	addi	a4,a4,1
4000178a:	07170663          	beq	a4,a7,400017f6 <ee_printf+0x35e>
4000178e:	100c                	addi	a1,sp,32
40001790:	95b2                	add	a1,a1,a2
40001792:	ff758423          	sb	s7,-24(a1)
40001796:	00074583          	lbu	a1,0(a4)
4000179a:	00160813          	addi	a6,a2,1
4000179e:	00180613          	addi	a2,a6,1
400017a2:	ddf9                	beqz	a1,40001780 <ee_printf+0x2e8>
400017a4:	20bed863          	bge	t4,a1,400019b4 <ee_printf+0x51c>
400017a8:	03e5ec33          	rem	s8,a1,t5
400017ac:	02010293          	addi	t0,sp,32
400017b0:	01028d33          	add	s10,t0,a6
400017b4:	00c28cb3          	add	s9,t0,a2
400017b8:	00280393          	addi	t2,a6,2
400017bc:	00380613          	addi	a2,a6,3
400017c0:	03e5c5b3          	div	a1,a1,t5
400017c4:	026c4833          	div	a6,s8,t1
400017c8:	00b482b3          	add	t0,s1,a1
400017cc:	0002c583          	lbu	a1,0(t0)
400017d0:	febd0423          	sb	a1,-24(s10)
400017d4:	026c65b3          	rem	a1,s8,t1
400017d8:	9826                	add	a6,a6,s1
400017da:	00084803          	lbu	a6,0(a6)
400017de:	ff0c8423          	sb	a6,-24(s9)
400017e2:	95a6                	add	a1,a1,s1
400017e4:	0005c803          	lbu	a6,0(a1)
400017e8:	100c                	addi	a1,sp,32
400017ea:	959e                	add	a1,a1,t2
400017ec:	ff058423          	sb	a6,-24(a1)
400017f0:	0705                	addi	a4,a4,1
400017f2:	f9171ee3          	bne	a4,a7,4000178e <ee_printf+0x2f6>
400017f6:	8bc1                	andi	a5,a5,16
400017f8:	fff68813          	addi	a6,a3,-1
400017fc:	e395                	bnez	a5,40001820 <ee_printf+0x388>
400017fe:	40c687b3          	sub	a5,a3,a2
40001802:	97aa                	add	a5,a5,a0
40001804:	02000713          	li	a4,32
40001808:	2cd65863          	bge	a2,a3,40001ad8 <ee_printf+0x640>
4000180c:	0505                	addi	a0,a0,1
4000180e:	fee50fa3          	sb	a4,-1(a0)
40001812:	fea79de3          	bne	a5,a0,4000180c <ee_printf+0x374>
40001816:	40d606b3          	sub	a3,a2,a3
4000181a:	96c2                	add	a3,a3,a6
4000181c:	fff68813          	addi	a6,a3,-1
40001820:	003c                	addi	a5,sp,8
40001822:	00c505b3          	add	a1,a0,a2
40001826:	0007c703          	lbu	a4,0(a5)
4000182a:	0505                	addi	a0,a0,1
4000182c:	0785                	addi	a5,a5,1
4000182e:	fee50fa3          	sb	a4,-1(a0)
40001832:	fea59ae3          	bne	a1,a0,40001826 <ee_printf+0x38e>
40001836:	e4d65ee3          	bge	a2,a3,40001692 <ee_printf+0x1fa>
4000183a:	872e                	mv	a4,a1
4000183c:	02000513          	li	a0,32
40001840:	4685                	li	a3,1
40001842:	0705                	addi	a4,a4,1
40001844:	40e687b3          	sub	a5,a3,a4
40001848:	97c2                	add	a5,a5,a6
4000184a:	97ae                	add	a5,a5,a1
4000184c:	fea70fa3          	sb	a0,-1(a4)
40001850:	fef649e3          	blt	a2,a5,40001842 <ee_printf+0x3aa>
40001854:	4505                	li	a0,1
40001856:	1cc85763          	bge	a6,a2,40001a24 <ee_printf+0x58c>
4000185a:	952e                	add	a0,a0,a1
4000185c:	bd1d                	j	40001692 <ee_printf+0x1fa>
4000185e:	8946                	mv	s2,a7
40001860:	8bc1                	andi	a5,a5,16
40001862:	16fd                	addi	a3,a3,-1
40001864:	1e078c63          	beqz	a5,40001a5c <ee_printf+0x5c4>
40001868:	000aa603          	lw	a2,0(s5)
4000186c:	00150713          	addi	a4,a0,1
40001870:	00168793          	addi	a5,a3,1
40001874:	00c50023          	sb	a2,0(a0)
40001878:	0a91                	addi	s5,s5,4
4000187a:	953e                	add	a0,a0,a5
4000187c:	00190313          	addi	t1,s2,1
40001880:	87ba                	mv	a5,a4
40001882:	02000613          	li	a2,32
40001886:	22d05f63          	blez	a3,40001ac4 <ee_printf+0x62c>
4000188a:	0785                	addi	a5,a5,1
4000188c:	fec78fa3          	sb	a2,-1(a5)
40001890:	fea79de3          	bne	a5,a0,4000188a <ee_printf+0x3f2>
40001894:	00194783          	lbu	a5,1(s2)
40001898:	00d70533          	add	a0,a4,a3
4000189c:	c4079fe3          	bnez	a5,400014fa <ee_printf+0x62>
400018a0:	b985                	j	40001510 <ee_printf+0x78>
400018a2:	0027e793          	ori	a5,a5,2
400018a6:	004a8813          	addi	a6,s5,4
400018aa:	4629                	li	a2,10
400018ac:	bbf9                	j	4000168a <ee_printf+0x1f2>
400018ae:	0027e793          	ori	a5,a5,2
400018b2:	4629                	li	a2,10
400018b4:	06c00313          	li	t1,108
400018b8:	004a8813          	addi	a6,s5,4
400018bc:	20659a63          	bne	a1,t1,40001ad0 <ee_printf+0x638>
400018c0:	000aa583          	lw	a1,0(s5)
400018c4:	8946                	mv	s2,a7
400018c6:	8ac2                	mv	s5,a6
400018c8:	b3e1                	j	40001690 <ee_printf+0x1f8>
400018ca:	4621                	li	a2,8
400018cc:	b7e5                	j	400018b4 <ee_printf+0x41c>
400018ce:	0407e793          	ori	a5,a5,64
400018d2:	4641                	li	a2,16
400018d4:	b7c5                	j	400018b4 <ee_printf+0x41c>
400018d6:	0407e793          	ori	a5,a5,64
400018da:	06c00613          	li	a2,108
400018de:	000aa703          	lw	a4,0(s5)
400018e2:	0a91                	addi	s5,s5,4
400018e4:	1ac59b63          	bne	a1,a2,40001a9a <ee_printf+0x602>
400018e8:	0407f613          	andi	a2,a5,64
400018ec:	88a6                	mv	a7,s1
400018ee:	c609                	beqz	a2,400018f8 <ee_printf+0x460>
400018f0:	00001897          	auipc	a7,0x1
400018f4:	02c88893          	addi	a7,a7,44 # 4000291c <errpat+0x744>
400018f8:	00810313          	addi	t1,sp,8
400018fc:	01a10e13          	addi	t3,sp,26
40001900:	859a                	mv	a1,t1
40001902:	03a00e93          	li	t4,58
40001906:	a019                	j	4000190c <ee_printf+0x474>
40001908:	ffd58fa3          	sb	t4,-1(a1)
4000190c:	00074603          	lbu	a2,0(a4)
40001910:	058d                	addi	a1,a1,3
40001912:	0705                	addi	a4,a4,1
40001914:	00465813          	srli	a6,a2,0x4
40001918:	8a3d                	andi	a2,a2,15
4000191a:	9846                	add	a6,a6,a7
4000191c:	9646                	add	a2,a2,a7
4000191e:	00084803          	lbu	a6,0(a6)
40001922:	00064603          	lbu	a2,0(a2)
40001926:	ff058ea3          	sb	a6,-3(a1)
4000192a:	fec58f23          	sb	a2,-2(a1)
4000192e:	fcbe1de3          	bne	t3,a1,40001908 <ee_printf+0x470>
40001932:	8bc1                	andi	a5,a5,16
40001934:	fff68613          	addi	a2,a3,-1
40001938:	e39d                	bnez	a5,4000195e <ee_printf+0x4c6>
4000193a:	fef68593          	addi	a1,a3,-17
4000193e:	4845                	li	a6,17
40001940:	00b50733          	add	a4,a0,a1
40001944:	02000793          	li	a5,32
40001948:	18d85d63          	bge	a6,a3,40001ae2 <ee_printf+0x64a>
4000194c:	0505                	addi	a0,a0,1
4000194e:	fef50fa3          	sb	a5,-1(a0)
40001952:	fea71de3          	bne	a4,a0,4000194c <ee_printf+0x4b4>
40001956:	40b606b3          	sub	a3,a2,a1
4000195a:	fff68613          	addi	a2,a3,-1
4000195e:	87aa                	mv	a5,a0
40001960:	01130593          	addi	a1,t1,17
40001964:	00034703          	lbu	a4,0(t1)
40001968:	0305                	addi	t1,t1,1
4000196a:	0785                	addi	a5,a5,1
4000196c:	fee78fa3          	sb	a4,-1(a5)
40001970:	feb31ae3          	bne	t1,a1,40001964 <ee_printf+0x4cc>
40001974:	47c5                	li	a5,17
40001976:	0545                	addi	a0,a0,17
40001978:	02d7d763          	bge	a5,a3,400019a6 <ee_printf+0x50e>
4000197c:	872a                	mv	a4,a0
4000197e:	02000813          	li	a6,32
40001982:	4585                	li	a1,1
40001984:	46c5                	li	a3,17
40001986:	0705                	addi	a4,a4,1
40001988:	40e587b3          	sub	a5,a1,a4
4000198c:	97b2                	add	a5,a5,a2
4000198e:	97aa                	add	a5,a5,a0
40001990:	ff070fa3          	sb	a6,-1(a4)
40001994:	fef6c9e3          	blt	a3,a5,40001986 <ee_printf+0x4ee>
40001998:	4741                	li	a4,16
4000199a:	4785                	li	a5,1
4000199c:	00c75463          	bge	a4,a2,400019a4 <ee_printf+0x50c>
400019a0:	ff060793          	addi	a5,a2,-16
400019a4:	953e                	add	a0,a0,a5
400019a6:	00294783          	lbu	a5,2(s2)
400019aa:	00290313          	addi	t1,s2,2
400019ae:	b40796e3          	bnez	a5,400014fa <ee_printf+0x62>
400019b2:	beb9                	j	40001510 <ee_printf+0x78>
400019b4:	83c2                	mv	t2,a6
400019b6:	e2bfd6e3          	bge	t6,a1,400017e2 <ee_printf+0x34a>
400019ba:	0265c2b3          	div	t0,a1,t1
400019be:	02010393          	addi	t2,sp,32
400019c2:	01038c33          	add	s8,t2,a6
400019c6:	83b2                	mv	t2,a2
400019c8:	00280613          	addi	a2,a6,2
400019cc:	00548833          	add	a6,s1,t0
400019d0:	00084803          	lbu	a6,0(a6)
400019d4:	0265e5b3          	rem	a1,a1,t1
400019d8:	ff0c0423          	sb	a6,-24(s8)
400019dc:	b519                	j	400017e2 <ee_printf+0x34a>
400019de:	4701                	li	a4,0
400019e0:	48a5                	li	a7,9
400019e2:	00271613          	slli	a2,a4,0x2
400019e6:	9732                	add	a4,a4,a2
400019e8:	0805                	addi	a6,a6,1
400019ea:	0706                	slli	a4,a4,0x1
400019ec:	972e                	add	a4,a4,a1
400019ee:	00084583          	lbu	a1,0(a6)
400019f2:	fd070713          	addi	a4,a4,-48
400019f6:	fd058613          	addi	a2,a1,-48
400019fa:	0ff67613          	andi	a2,a2,255
400019fe:	fec8f2e3          	bgeu	a7,a2,400019e2 <ee_printf+0x54a>
40001a02:	8942                	mv	s2,a6
40001a04:	b669                	j	4000158e <ee_printf+0xf6>
40001a06:	000aa703          	lw	a4,0(s5)
40001a0a:	0a91                	addi	s5,s5,4
40001a0c:	bb91                	j	40001760 <ee_printf+0x2c8>
40001a0e:	000aa703          	lw	a4,0(s5)
40001a12:	00294583          	lbu	a1,2(s2)
40001a16:	0a91                	addi	s5,s5,4
40001a18:	fff74613          	not	a2,a4
40001a1c:	867d                	srai	a2,a2,0x1f
40001a1e:	8f71                	and	a4,a4,a2
40001a20:	0909                	addi	s2,s2,2
40001a22:	b6b5                	j	4000158e <ee_printf+0xf6>
40001a24:	8e91                	sub	a3,a3,a2
40001a26:	01068533          	add	a0,a3,a6
40001a2a:	952e                	add	a0,a0,a1
40001a2c:	b19d                	j	40001692 <ee_printf+0x1fa>
40001a2e:	0017e793          	ori	a5,a5,1
40001a32:	46a1                	li	a3,8
40001a34:	b9dd                	j	4000172a <ee_printf+0x292>
40001a36:	00094703          	lbu	a4,0(s2)
40001a3a:	86be                	mv	a3,a5
40001a3c:	87aa                	mv	a5,a0
40001a3e:	8536                	mv	a0,a3
40001a40:	00e78023          	sb	a4,0(a5)
40001a44:	00194783          	lbu	a5,1(s2)
40001a48:	00190313          	addi	t1,s2,1
40001a4c:	aa0797e3          	bnez	a5,400014fa <ee_printf+0x62>
40001a50:	b4c1                	j	40001510 <ee_printf+0x78>
40001a52:	00001617          	auipc	a2,0x1
40001a56:	ef260613          	addi	a2,a2,-270 # 40002944 <errpat+0x76c>
40001a5a:	b18d                	j	400016bc <ee_printf+0x224>
40001a5c:	00d50733          	add	a4,a0,a3
40001a60:	02000793          	li	a5,32
40001a64:	04d05763          	blez	a3,40001ab2 <ee_printf+0x61a>
40001a68:	0505                	addi	a0,a0,1
40001a6a:	fef50fa3          	sb	a5,-1(a0)
40001a6e:	fee51de3          	bne	a0,a4,40001a68 <ee_printf+0x5d0>
40001a72:	56fd                	li	a3,-1
40001a74:	bbd5                	j	40001868 <ee_printf+0x3d0>
40001a76:	fff68813          	addi	a6,a3,-1
40001a7a:	08d5d263          	bge	a1,a3,40001afe <ee_printf+0x666>
40001a7e:	40b687b3          	sub	a5,a3,a1
40001a82:	97aa                	add	a5,a5,a0
40001a84:	02000713          	li	a4,32
40001a88:	0505                	addi	a0,a0,1
40001a8a:	fee50fa3          	sb	a4,-1(a0)
40001a8e:	fef51de3          	bne	a0,a5,40001a88 <ee_printf+0x5f0>
40001a92:	40d586b3          	sub	a3,a1,a3
40001a96:	96c2                	add	a3,a3,a6
40001a98:	b199                	j	400016de <ee_printf+0x246>
40001a9a:	8946                	mv	s2,a7
40001a9c:	b1d1                	j	40001760 <ee_printf+0x2c8>
40001a9e:	4641                	li	a2,16
40001aa0:	bd11                	j	400018b4 <ee_printf+0x41c>
40001aa2:	4629                	li	a2,10
40001aa4:	bd01                	j	400018b4 <ee_printf+0x41c>
40001aa6:	0107f593          	andi	a1,a5,16
40001aaa:	c1b9                	beqz	a1,40001af0 <ee_printf+0x658>
40001aac:	872a                	mv	a4,a0
40001aae:	4581                	li	a1,0
40001ab0:	b1b1                	j	400016fc <ee_printf+0x264>
40001ab2:	000aa783          	lw	a5,0(s5)
40001ab6:	00150713          	addi	a4,a0,1
40001aba:	0a91                	addi	s5,s5,4
40001abc:	00f50023          	sb	a5,0(a0)
40001ac0:	00190313          	addi	t1,s2,1
40001ac4:	00194783          	lbu	a5,1(s2)
40001ac8:	853a                	mv	a0,a4
40001aca:	a20798e3          	bnez	a5,400014fa <ee_printf+0x62>
40001ace:	b489                	j	40001510 <ee_printf+0x78>
40001ad0:	8946                	mv	s2,a7
40001ad2:	be65                	j	4000168a <ee_printf+0x1f2>
40001ad4:	0509                	addi	a0,a0,2
40001ad6:	b7ad                	j	40001a40 <ee_printf+0x5a8>
40001ad8:	ffe68793          	addi	a5,a3,-2
40001adc:	86c2                	mv	a3,a6
40001ade:	883e                	mv	a6,a5
40001ae0:	b381                	j	40001820 <ee_printf+0x388>
40001ae2:	ffe68793          	addi	a5,a3,-2
40001ae6:	86b2                	mv	a3,a2
40001ae8:	863e                	mv	a2,a5
40001aea:	bd95                	j	4000195e <ee_printf+0x4c6>
40001aec:	872a                	mv	a4,a0
40001aee:	b139                	j	400016fc <ee_printf+0x264>
40001af0:	fff68813          	addi	a6,a3,-1
40001af4:	f8d045e3          	bgtz	a3,40001a7e <ee_printf+0x5e6>
40001af8:	86c2                	mv	a3,a6
40001afa:	872a                	mv	a4,a0
40001afc:	b101                	j	400016fc <ee_printf+0x264>
40001afe:	86c2                	mv	a3,a6
40001b00:	bef9                	j	400016de <ee_printf+0x246>

40001b02 <handle_trap>:
40001b02:	8101c683          	lbu	a3,-2032(gp) # 400029d8 <error_msg.1528>
40001b06:	ce99                	beqz	a3,40001b24 <handle_trap+0x22>
40001b08:	8201a703          	lw	a4,-2016(gp) # 400029e8 <UART_STATUS>
40001b0c:	8181a583          	lw	a1,-2024(gp) # 400029e0 <UART_WRITE>
40001b10:	81118613          	addi	a2,gp,-2031 # 400029d9 <error_msg.1528+0x1>
40001b14:	431c                	lw	a5,0(a4)
40001b16:	8b85                	andi	a5,a5,1
40001b18:	fff5                	bnez	a5,40001b14 <handle_trap+0x12>
40001b1a:	c194                	sw	a3,0(a1)
40001b1c:	00064683          	lbu	a3,0(a2)
40001b20:	0605                	addi	a2,a2,1
40001b22:	faed                	bnez	a3,40001b14 <handle_trap+0x12>
40001b24:	8082                	ret

40001b26 <uart_set_ctrl>:
40001b26:	0586                	slli	a1,a1,0x1
40001b28:	8dd1                	or	a1,a1,a2
40001b2a:	0542                	slli	a0,a0,0x10
40001b2c:	8dc9                	or	a1,a1,a0
40001b2e:	8241a783          	lw	a5,-2012(gp) # 400029ec <UART_CONTROL>
40001b32:	c38c                	sw	a1,0(a5)
40001b34:	8082                	ret

40001b36 <uart_tx_full>:
40001b36:	8201a783          	lw	a5,-2016(gp) # 400029e8 <UART_STATUS>
40001b3a:	4388                	lw	a0,0(a5)
40001b3c:	8905                	andi	a0,a0,1
40001b3e:	8082                	ret

40001b40 <uart_rx_full>:
40001b40:	8201a783          	lw	a5,-2016(gp) # 400029e8 <UART_STATUS>
40001b44:	4388                	lw	a0,0(a5)
40001b46:	8109                	srli	a0,a0,0x2
40001b48:	8905                	andi	a0,a0,1
40001b4a:	8082                	ret

40001b4c <uart_tx_empty>:
40001b4c:	8201a783          	lw	a5,-2016(gp) # 400029e8 <UART_STATUS>
40001b50:	4388                	lw	a0,0(a5)
40001b52:	8105                	srli	a0,a0,0x1
40001b54:	8905                	andi	a0,a0,1
40001b56:	8082                	ret

40001b58 <uart_rx_empty>:
40001b58:	8201a783          	lw	a5,-2016(gp) # 400029e8 <UART_STATUS>
40001b5c:	4388                	lw	a0,0(a5)
40001b5e:	810d                	srli	a0,a0,0x3
40001b60:	8905                	andi	a0,a0,1
40001b62:	8082                	ret

40001b64 <uart_write>:
40001b64:	8201a703          	lw	a4,-2016(gp) # 400029e8 <UART_STATUS>
40001b68:	431c                	lw	a5,0(a4)
40001b6a:	8b85                	andi	a5,a5,1
40001b6c:	fff5                	bnez	a5,40001b68 <uart_write+0x4>
40001b6e:	8181a783          	lw	a5,-2024(gp) # 400029e0 <UART_WRITE>
40001b72:	c388                	sw	a0,0(a5)
40001b74:	8082                	ret

40001b76 <uart_read>:
40001b76:	8201a703          	lw	a4,-2016(gp) # 400029e8 <UART_STATUS>
40001b7a:	431c                	lw	a5,0(a4)
40001b7c:	8ba1                	andi	a5,a5,8
40001b7e:	fff5                	bnez	a5,40001b7a <uart_read+0x4>
40001b80:	81c1a783          	lw	a5,-2020(gp) # 400029e4 <UART_READ>
40001b84:	4388                	lw	a0,0(a5)
40001b86:	0ff57513          	andi	a0,a0,255
40001b8a:	8082                	ret

40001b8c <uart_print>:
40001b8c:	00054603          	lbu	a2,0(a0)
40001b90:	ce19                	beqz	a2,40001bae <uart_print+0x22>
40001b92:	8201a703          	lw	a4,-2016(gp) # 400029e8 <UART_STATUS>
40001b96:	8181a583          	lw	a1,-2024(gp) # 400029e0 <UART_WRITE>
40001b9a:	00150693          	addi	a3,a0,1
40001b9e:	431c                	lw	a5,0(a4)
40001ba0:	8b85                	andi	a5,a5,1
40001ba2:	fff5                	bnez	a5,40001b9e <uart_print+0x12>
40001ba4:	c190                	sw	a2,0(a1)
40001ba6:	0006c603          	lbu	a2,0(a3)
40001baa:	0685                	addi	a3,a3,1
40001bac:	fa6d                	bnez	a2,40001b9e <uart_print+0x12>
40001bae:	8082                	ret

Disassembly of section .text.startup:

40001bb0 <main>:
40001bb0:	7135                	addi	sp,sp,-160
40001bb2:	862e                	mv	a2,a1
40001bb4:	c62a                	sw	a0,12(sp)
40001bb6:	006c                	addi	a1,sp,12
40001bb8:	05e10513          	addi	a0,sp,94
40001bbc:	cf06                	sw	ra,156(sp)
40001bbe:	cd22                	sw	s0,152(sp)
40001bc0:	cb26                	sw	s1,148(sp)
40001bc2:	c94a                	sw	s2,144(sp)
40001bc4:	c74e                	sw	s3,140(sp)
40001bc6:	c552                	sw	s4,136(sp)
40001bc8:	c356                	sw	s5,132(sp)
40001bca:	c15a                	sw	s6,128(sp)
40001bcc:	dede                	sw	s7,124(sp)
40001bce:	dce2                	sw	s8,120(sp)
40001bd0:	dae6                	sw	s9,116(sp)
40001bd2:	d8ea                	sw	s10,112(sp)
40001bd4:	d6ee                	sw	s11,108(sp)
40001bd6:	960ff0ef          	jal	ra,40000d36 <portable_init>
40001bda:	00001517          	auipc	a0,0x1
40001bde:	82a50513          	addi	a0,a0,-2006 # 40002404 <errpat+0x22c>
40001be2:	385d                	jal	40001498 <ee_printf>
40001be4:	4505                	li	a0,1
40001be6:	dcaff0ef          	jal	ra,400011b0 <get_seed_32>
40001bea:	87aa                	mv	a5,a0
40001bec:	4509                	li	a0,2
40001bee:	00f11e23          	sh	a5,28(sp)
40001bf2:	dbeff0ef          	jal	ra,400011b0 <get_seed_32>
40001bf6:	87aa                	mv	a5,a0
40001bf8:	450d                	li	a0,3
40001bfa:	00f11f23          	sh	a5,30(sp)
40001bfe:	db2ff0ef          	jal	ra,400011b0 <get_seed_32>
40001c02:	87aa                	mv	a5,a0
40001c04:	4511                	li	a0,4
40001c06:	02f11023          	sh	a5,32(sp)
40001c0a:	da6ff0ef          	jal	ra,400011b0 <get_seed_32>
40001c0e:	87aa                	mv	a5,a0
40001c10:	4515                	li	a0,5
40001c12:	dc3e                	sw	a5,56(sp)
40001c14:	d9cff0ef          	jal	ra,400011b0 <get_seed_32>
40001c18:	4a050063          	beqz	a0,400020b8 <main+0x508>
40001c1c:	de2a                	sw	a0,60(sp)
40001c1e:	47f2                	lw	a5,28(sp)
40001c20:	46079b63          	bnez	a5,40002096 <main+0x4e6>
40001c24:	02011783          	lh	a5,32(sp)
40001c28:	48078363          	beqz	a5,400020ae <main+0x4fe>
40001c2c:	56f2                	lw	a3,60(sp)
40001c2e:	84418313          	addi	t1,gp,-1980 # 40002a0c <static_memblk>
40001c32:	d21a                	sw	t1,36(sp)
40001c34:	0026f713          	andi	a4,a3,2
40001c38:	0016f793          	andi	a5,a3,1
40001c3c:	00e03733          	snez	a4,a4
40001c40:	04011e23          	sh	zero,92(sp)
40001c44:	0046f613          	andi	a2,a3,4
40001c48:	97ba                	add	a5,a5,a4
40001c4a:	c601                	beqz	a2,40001c52 <main+0xa2>
40001c4c:	0785                	addi	a5,a5,1
40001c4e:	07c2                	slli	a5,a5,0x10
40001c50:	83c1                	srli	a5,a5,0x10
40001c52:	7d000593          	li	a1,2000
40001c56:	02f5d5b3          	divu	a1,a1,a5
40001c5a:	4601                	li	a2,0
40001c5c:	4781                	li	a5,0
40001c5e:	4805                	li	a6,1
40001c60:	450d                	li	a0,3
40001c62:	da2e                	sw	a1,52(sp)
40001c64:	00f81733          	sll	a4,a6,a5
40001c68:	8f75                	and	a4,a4,a3
40001c6a:	40071963          	bnez	a4,4000207c <main+0x4cc>
40001c6e:	0785                	addi	a5,a5,1
40001c70:	fea79ae3          	bne	a5,a0,40001c64 <main+0xb4>
40001c74:	00000517          	auipc	a0,0x0
40001c78:	79c50513          	addi	a0,a0,1948 # 40002410 <errpat+0x238>
40001c7c:	81dff0ef          	jal	ra,40001498 <ee_printf>
40001c80:	00000517          	auipc	a0,0x0
40001c84:	79c50513          	addi	a0,a0,1948 # 4000241c <errpat+0x244>
40001c88:	811ff0ef          	jal	ra,40001498 <ee_printf>
40001c8c:	57f2                	lw	a5,60(sp)
40001c8e:	8b85                	andi	a5,a5,1
40001c90:	cb81                	beqz	a5,40001ca0 <main+0xf0>
40001c92:	01c11603          	lh	a2,28(sp)
40001c96:	55a2                	lw	a1,40(sp)
40001c98:	5552                	lw	a0,52(sp)
40001c9a:	907fe0ef          	jal	ra,400005a0 <core_list_init>
40001c9e:	c0aa                	sw	a0,64(sp)
40001ca0:	00000517          	auipc	a0,0x0
40001ca4:	78850513          	addi	a0,a0,1928 # 40002428 <errpat+0x250>
40001ca8:	ff0ff0ef          	jal	ra,40001498 <ee_printf>
40001cac:	57f2                	lw	a5,60(sp)
40001cae:	8b89                	andi	a5,a5,2
40001cb0:	1a079e63          	bnez	a5,40001e6c <main+0x2bc>
40001cb4:	00000517          	auipc	a0,0x0
40001cb8:	78450513          	addi	a0,a0,1924 # 40002438 <errpat+0x260>
40001cbc:	fdcff0ef          	jal	ra,40001498 <ee_printf>
40001cc0:	57f2                	lw	a5,60(sp)
40001cc2:	8b91                	andi	a5,a5,4
40001cc4:	c799                	beqz	a5,40001cd2 <main+0x122>
40001cc6:	5642                	lw	a2,48(sp)
40001cc8:	01c11583          	lh	a1,28(sp)
40001ccc:	5552                	lw	a0,52(sp)
40001cce:	890ff0ef          	jal	ra,40000d5e <core_init_state>
40001cd2:	57e2                	lw	a5,56(sp)
40001cd4:	ef8d                	bnez	a5,40001d0e <main+0x15e>
40001cd6:	4785                	li	a5,1
40001cd8:	dc3e                	sw	a5,56(sp)
40001cda:	5762                	lw	a4,56(sp)
40001cdc:	00271793          	slli	a5,a4,0x2
40001ce0:	97ba                	add	a5,a5,a4
40001ce2:	0786                	slli	a5,a5,0x1
40001ce4:	dc3e                	sw	a5,56(sp)
40001ce6:	feffe0ef          	jal	ra,40000cd4 <start_time>
40001cea:	0868                	addi	a0,sp,28
40001cec:	9d3fe0ef          	jal	ra,400006be <iterate>
40001cf0:	ffbfe0ef          	jal	ra,40000cea <stop_time>
40001cf4:	80cff0ef          	jal	ra,40000d00 <get_time>
40001cf8:	830ff0ef          	jal	ra,40000d28 <time_in_secs>
40001cfc:	dd79                	beqz	a0,40001cda <main+0x12a>
40001cfe:	47a9                	li	a5,10
40001d00:	02a7d533          	divu	a0,a5,a0
40001d04:	57e2                	lw	a5,56(sp)
40001d06:	0505                	addi	a0,a0,1
40001d08:	02a78533          	mul	a0,a5,a0
40001d0c:	dc2a                	sw	a0,56(sp)
40001d0e:	fc7fe0ef          	jal	ra,40000cd4 <start_time>
40001d12:	0868                	addi	a0,sp,28
40001d14:	9abfe0ef          	jal	ra,400006be <iterate>
40001d18:	fd3fe0ef          	jal	ra,40000cea <stop_time>
40001d1c:	fe5fe0ef          	jal	ra,40000d00 <get_time>
40001d20:	89aa                	mv	s3,a0
40001d22:	01c11503          	lh	a0,28(sp)
40001d26:	8a2e                	mv	s4,a1
40001d28:	4581                	li	a1,0
40001d2a:	d6aff0ef          	jal	ra,40001294 <crc16>
40001d2e:	85aa                	mv	a1,a0
40001d30:	01e11503          	lh	a0,30(sp)
40001d34:	d60ff0ef          	jal	ra,40001294 <crc16>
40001d38:	85aa                	mv	a1,a0
40001d3a:	02011503          	lh	a0,32(sp)
40001d3e:	d56ff0ef          	jal	ra,40001294 <crc16>
40001d42:	85aa                	mv	a1,a0
40001d44:	03411503          	lh	a0,52(sp)
40001d48:	d4cff0ef          	jal	ra,40001294 <crc16>
40001d4c:	67a1                	lui	a5,0x8
40001d4e:	b0578793          	addi	a5,a5,-1275 # 7b05 <_tbss_end+0x7b05>
40001d52:	892a                	mv	s2,a0
40001d54:	3ef50e63          	beq	a0,a5,40002150 <main+0x5a0>
40001d58:	14a7e263          	bltu	a5,a0,40001e9c <main+0x2ec>
40001d5c:	6789                	lui	a5,0x2
40001d5e:	8f278793          	addi	a5,a5,-1806 # 18f2 <_tbss_end+0x18f2>
40001d62:	40f50763          	beq	a0,a5,40002170 <main+0x5c0>
40001d66:	6795                	lui	a5,0x5
40001d68:	eaf78793          	addi	a5,a5,-337 # 4eaf <_tbss_end+0x4eaf>
40001d6c:	14f51a63          	bne	a0,a5,40001ec0 <main+0x310>
40001d70:	00000517          	auipc	a0,0x0
40001d74:	73050513          	addi	a0,a0,1840 # 400024a0 <errpat+0x2c8>
40001d78:	f20ff0ef          	jal	ra,40001498 <ee_printf>
40001d7c:	4d09                	li	s10,2
40001d7e:	00001c97          	auipc	s9,0x1
40001d82:	c4ac8c93          	addi	s9,s9,-950 # 400029c8 <default_num_contexts>
40001d86:	000ca783          	lw	a5,0(s9)
40001d8a:	4d81                	li	s11,0
40001d8c:	4c01                	li	s8,0
40001d8e:	3e078963          	beqz	a5,40002180 <main+0x5d0>
40001d92:	0d06                	slli	s10,s10,0x1
40001d94:	00000797          	auipc	a5,0x0
40001d98:	3f078793          	addi	a5,a5,1008 # 40002184 <list_known_crc>
40001d9c:	9d3e                	add	s10,s10,a5
40001d9e:	00000b97          	auipc	s7,0x0
40001da2:	792b8b93          	addi	s7,s7,1938 # 40002530 <errpat+0x358>
40001da6:	00000b17          	auipc	s6,0x0
40001daa:	7bab0b13          	addi	s6,s6,1978 # 40002560 <errpat+0x388>
40001dae:	00000a97          	auipc	s5,0x0
40001db2:	7e6a8a93          	addi	s5,s5,2022 # 40002594 <errpat+0x3bc>
40001db6:	a02d                	j	40001de0 <main+0x230>
40001db8:	109c                	addi	a5,sp,96
40001dba:	943e                	add	s0,s0,a5
40001dbc:	ffc45783          	lhu	a5,-4(s0)
40001dc0:	0c05                	addi	s8,s8,1
40001dc2:	000ca703          	lw	a4,0(s9)
40001dc6:	97ee                	add	a5,a5,s11
40001dc8:	0c42                	slli	s8,s8,0x10
40001dca:	01079413          	slli	s0,a5,0x10
40001dce:	01079d93          	slli	s11,a5,0x10
40001dd2:	010c5c13          	srli	s8,s8,0x10
40001dd6:	8041                	srli	s0,s0,0x10
40001dd8:	410ddd93          	srai	s11,s11,0x10
40001ddc:	0eec7863          	bgeu	s8,a4,40001ecc <main+0x31c>
40001de0:	004c1413          	slli	s0,s8,0x4
40001de4:	018404b3          	add	s1,s0,s8
40001de8:	109c                	addi	a5,sp,96
40001dea:	048a                	slli	s1,s1,0x2
40001dec:	94be                	add	s1,s1,a5
40001dee:	fdc4a783          	lw	a5,-36(s1)
40001df2:	fe049e23          	sh	zero,-4(s1)
40001df6:	8b85                	andi	a5,a5,1
40001df8:	c385                	beqz	a5,40001e18 <main+0x268>
40001dfa:	ff64d603          	lhu	a2,-10(s1)
40001dfe:	000d5683          	lhu	a3,0(s10)
40001e02:	00d60b63          	beq	a2,a3,40001e18 <main+0x268>
40001e06:	85e2                	mv	a1,s8
40001e08:	855e                	mv	a0,s7
40001e0a:	e8eff0ef          	jal	ra,40001498 <ee_printf>
40001e0e:	ffc4d783          	lhu	a5,-4(s1)
40001e12:	0785                	addi	a5,a5,1
40001e14:	fef49e23          	sh	a5,-4(s1)
40001e18:	018404b3          	add	s1,s0,s8
40001e1c:	109c                	addi	a5,sp,96
40001e1e:	048a                	slli	s1,s1,0x2
40001e20:	94be                	add	s1,s1,a5
40001e22:	fdc4a783          	lw	a5,-36(s1)
40001e26:	0027f713          	andi	a4,a5,2
40001e2a:	c315                	beqz	a4,40001e4e <main+0x29e>
40001e2c:	ff84d603          	lhu	a2,-8(s1)
40001e30:	00cd5683          	lhu	a3,12(s10)
40001e34:	00d60d63          	beq	a2,a3,40001e4e <main+0x29e>
40001e38:	85e2                	mv	a1,s8
40001e3a:	855a                	mv	a0,s6
40001e3c:	e5cff0ef          	jal	ra,40001498 <ee_printf>
40001e40:	ffc4d703          	lhu	a4,-4(s1)
40001e44:	fdc4a783          	lw	a5,-36(s1)
40001e48:	0705                	addi	a4,a4,1
40001e4a:	fee49e23          	sh	a4,-4(s1)
40001e4e:	9462                	add	s0,s0,s8
40001e50:	8b91                	andi	a5,a5,4
40001e52:	040a                	slli	s0,s0,0x2
40001e54:	d3b5                	beqz	a5,40001db8 <main+0x208>
40001e56:	109c                	addi	a5,sp,96
40001e58:	943e                	add	s0,s0,a5
40001e5a:	ffa45603          	lhu	a2,-6(s0)
40001e5e:	018d5683          	lhu	a3,24(s10)
40001e62:	02d61163          	bne	a2,a3,40001e84 <main+0x2d4>
40001e66:	ffc45783          	lhu	a5,-4(s0)
40001e6a:	bf99                	j	40001dc0 <main+0x210>
40001e6c:	01e11783          	lh	a5,30(sp)
40001e70:	01c11603          	lh	a2,28(sp)
40001e74:	55b2                	lw	a1,44(sp)
40001e76:	5552                	lw	a0,52(sp)
40001e78:	07c2                	slli	a5,a5,0x10
40001e7a:	00d4                	addi	a3,sp,68
40001e7c:	8e5d                	or	a2,a2,a5
40001e7e:	89dfe0ef          	jal	ra,4000071a <core_init_matrix>
40001e82:	bd0d                	j	40001cb4 <main+0x104>
40001e84:	85e2                	mv	a1,s8
40001e86:	8556                	mv	a0,s5
40001e88:	e10ff0ef          	jal	ra,40001498 <ee_printf>
40001e8c:	ffc45783          	lhu	a5,-4(s0)
40001e90:	0785                	addi	a5,a5,1
40001e92:	07c2                	slli	a5,a5,0x10
40001e94:	83c1                	srli	a5,a5,0x10
40001e96:	fef41e23          	sh	a5,-4(s0)
40001e9a:	b71d                	j	40001dc0 <main+0x210>
40001e9c:	67a5                	lui	a5,0x9
40001e9e:	a0278793          	addi	a5,a5,-1534 # 8a02 <_tbss_end+0x8a02>
40001ea2:	2af50f63          	beq	a0,a5,40002160 <main+0x5b0>
40001ea6:	67bd                	lui	a5,0xf
40001ea8:	9f578793          	addi	a5,a5,-1547 # e9f5 <_tbss_end+0xe9f5>
40001eac:	00f51a63          	bne	a0,a5,40001ec0 <main+0x310>
40001eb0:	00000517          	auipc	a0,0x0
40001eb4:	62450513          	addi	a0,a0,1572 # 400024d4 <errpat+0x2fc>
40001eb8:	de0ff0ef          	jal	ra,40001498 <ee_printf>
40001ebc:	4d0d                	li	s10,3
40001ebe:	b5c1                	j	40001d7e <main+0x1ce>
40001ec0:	6441                	lui	s0,0x10
40001ec2:	147d                	addi	s0,s0,-1
40001ec4:	00001c97          	auipc	s9,0x1
40001ec8:	b04c8c93          	addi	s9,s9,-1276 # 400029c8 <default_num_contexts>
40001ecc:	bceff0ef          	jal	ra,4000129a <check_data_types>
40001ed0:	55d2                	lw	a1,52(sp)
40001ed2:	942a                	add	s0,s0,a0
40001ed4:	00000517          	auipc	a0,0x0
40001ed8:	6f050513          	addi	a0,a0,1776 # 400025c4 <errpat+0x3ec>
40001edc:	dbcff0ef          	jal	ra,40001498 <ee_printf>
40001ee0:	85ce                	mv	a1,s3
40001ee2:	00000517          	auipc	a0,0x0
40001ee6:	6fa50513          	addi	a0,a0,1786 # 400025dc <errpat+0x404>
40001eea:	daeff0ef          	jal	ra,40001498 <ee_printf>
40001eee:	85d2                	mv	a1,s4
40001ef0:	854e                	mv	a0,s3
40001ef2:	e37fe0ef          	jal	ra,40000d28 <time_in_secs>
40001ef6:	85aa                	mv	a1,a0
40001ef8:	00000517          	auipc	a0,0x0
40001efc:	6fc50513          	addi	a0,a0,1788 # 400025f4 <errpat+0x41c>
40001f00:	d98ff0ef          	jal	ra,40001498 <ee_printf>
40001f04:	0442                	slli	s0,s0,0x10
40001f06:	854e                	mv	a0,s3
40001f08:	85d2                	mv	a1,s4
40001f0a:	8041                	srli	s0,s0,0x10
40001f0c:	e1dfe0ef          	jal	ra,40000d28 <time_in_secs>
40001f10:	20051963          	bnez	a0,40002122 <main+0x572>
40001f14:	854e                	mv	a0,s3
40001f16:	85d2                	mv	a1,s4
40001f18:	e11fe0ef          	jal	ra,40000d28 <time_in_secs>
40001f1c:	47a5                	li	a5,9
40001f1e:	1ea7fa63          	bgeu	a5,a0,40002112 <main+0x562>
40001f22:	000ca783          	lw	a5,0(s9)
40001f26:	55e2                	lw	a1,56(sp)
40001f28:	00000517          	auipc	a0,0x0
40001f2c:	73c50513          	addi	a0,a0,1852 # 40002664 <errpat+0x48c>
40001f30:	01041493          	slli	s1,s0,0x10
40001f34:	02f585b3          	mul	a1,a1,a5
40001f38:	84c1                	srai	s1,s1,0x10
40001f3a:	d5eff0ef          	jal	ra,40001498 <ee_printf>
40001f3e:	00000597          	auipc	a1,0x0
40001f42:	73e58593          	addi	a1,a1,1854 # 4000267c <errpat+0x4a4>
40001f46:	00000517          	auipc	a0,0x0
40001f4a:	74250513          	addi	a0,a0,1858 # 40002688 <errpat+0x4b0>
40001f4e:	d4aff0ef          	jal	ra,40001498 <ee_printf>
40001f52:	00000597          	auipc	a1,0x0
40001f56:	74e58593          	addi	a1,a1,1870 # 400026a0 <errpat+0x4c8>
40001f5a:	00000517          	auipc	a0,0x0
40001f5e:	74a50513          	addi	a0,a0,1866 # 400026a4 <errpat+0x4cc>
40001f62:	d36ff0ef          	jal	ra,40001498 <ee_printf>
40001f66:	00000597          	auipc	a1,0x0
40001f6a:	75658593          	addi	a1,a1,1878 # 400026bc <errpat+0x4e4>
40001f6e:	00000517          	auipc	a0,0x0
40001f72:	75650513          	addi	a0,a0,1878 # 400026c4 <errpat+0x4ec>
40001f76:	d22ff0ef          	jal	ra,40001498 <ee_printf>
40001f7a:	85ca                	mv	a1,s2
40001f7c:	00000517          	auipc	a0,0x0
40001f80:	76050513          	addi	a0,a0,1888 # 400026dc <errpat+0x504>
40001f84:	d14ff0ef          	jal	ra,40001498 <ee_printf>
40001f88:	57f2                	lw	a5,60(sp)
40001f8a:	0017f713          	andi	a4,a5,1
40001f8e:	cf0d                	beqz	a4,40001fc8 <main+0x418>
40001f90:	000ca703          	lw	a4,0(s9)
40001f94:	cb15                	beqz	a4,40001fc8 <main+0x418>
40001f96:	4401                	li	s0,0
40001f98:	00000917          	auipc	s2,0x0
40001f9c:	76090913          	addi	s2,s2,1888 # 400026f8 <errpat+0x520>
40001fa0:	00441793          	slli	a5,s0,0x4
40001fa4:	97a2                	add	a5,a5,s0
40001fa6:	1098                	addi	a4,sp,96
40001fa8:	078a                	slli	a5,a5,0x2
40001faa:	97ba                	add	a5,a5,a4
40001fac:	ff67d603          	lhu	a2,-10(a5)
40001fb0:	85a2                	mv	a1,s0
40001fb2:	854a                	mv	a0,s2
40001fb4:	ce4ff0ef          	jal	ra,40001498 <ee_printf>
40001fb8:	0405                	addi	s0,s0,1
40001fba:	000ca783          	lw	a5,0(s9)
40001fbe:	0442                	slli	s0,s0,0x10
40001fc0:	8041                	srli	s0,s0,0x10
40001fc2:	fcf46fe3          	bltu	s0,a5,40001fa0 <main+0x3f0>
40001fc6:	57f2                	lw	a5,60(sp)
40001fc8:	0027f713          	andi	a4,a5,2
40001fcc:	cf15                	beqz	a4,40002008 <main+0x458>
40001fce:	000ca703          	lw	a4,0(s9)
40001fd2:	16070b63          	beqz	a4,40002148 <main+0x598>
40001fd6:	4401                	li	s0,0
40001fd8:	00000917          	auipc	s2,0x0
40001fdc:	73c90913          	addi	s2,s2,1852 # 40002714 <errpat+0x53c>
40001fe0:	00441793          	slli	a5,s0,0x4
40001fe4:	97a2                	add	a5,a5,s0
40001fe6:	1098                	addi	a4,sp,96
40001fe8:	078a                	slli	a5,a5,0x2
40001fea:	97ba                	add	a5,a5,a4
40001fec:	ff87d603          	lhu	a2,-8(a5)
40001ff0:	85a2                	mv	a1,s0
40001ff2:	854a                	mv	a0,s2
40001ff4:	ca4ff0ef          	jal	ra,40001498 <ee_printf>
40001ff8:	0405                	addi	s0,s0,1
40001ffa:	000ca783          	lw	a5,0(s9)
40001ffe:	0442                	slli	s0,s0,0x10
40002000:	8041                	srli	s0,s0,0x10
40002002:	fcf46fe3          	bltu	s0,a5,40001fe0 <main+0x430>
40002006:	57f2                	lw	a5,60(sp)
40002008:	8b91                	andi	a5,a5,4
4000200a:	ebd5                	bnez	a5,400020be <main+0x50e>
4000200c:	000ca783          	lw	a5,0(s9)
40002010:	4401                	li	s0,0
40002012:	00000917          	auipc	s2,0x0
40002016:	73a90913          	addi	s2,s2,1850 # 4000274c <errpat+0x574>
4000201a:	c785                	beqz	a5,40002042 <main+0x492>
4000201c:	00441793          	slli	a5,s0,0x4
40002020:	97a2                	add	a5,a5,s0
40002022:	1098                	addi	a4,sp,96
40002024:	078a                	slli	a5,a5,0x2
40002026:	97ba                	add	a5,a5,a4
40002028:	ff47d603          	lhu	a2,-12(a5)
4000202c:	85a2                	mv	a1,s0
4000202e:	854a                	mv	a0,s2
40002030:	c68ff0ef          	jal	ra,40001498 <ee_printf>
40002034:	0405                	addi	s0,s0,1
40002036:	000ca783          	lw	a5,0(s9)
4000203a:	0442                	slli	s0,s0,0x10
4000203c:	8041                	srli	s0,s0,0x10
4000203e:	fcf46fe3          	bltu	s0,a5,4000201c <main+0x46c>
40002042:	c0e9                	beqz	s1,40002104 <main+0x554>
40002044:	0a905963          	blez	s1,400020f6 <main+0x546>
40002048:	00000517          	auipc	a0,0x0
4000204c:	76c50513          	addi	a0,a0,1900 # 400027b4 <errpat+0x5dc>
40002050:	c48ff0ef          	jal	ra,40001498 <ee_printf>
40002054:	05e10513          	addi	a0,sp,94
40002058:	d01fe0ef          	jal	ra,40000d58 <portable_fini>
4000205c:	40fa                	lw	ra,156(sp)
4000205e:	446a                	lw	s0,152(sp)
40002060:	44da                	lw	s1,148(sp)
40002062:	494a                	lw	s2,144(sp)
40002064:	49ba                	lw	s3,140(sp)
40002066:	4a2a                	lw	s4,136(sp)
40002068:	4a9a                	lw	s5,132(sp)
4000206a:	4b0a                	lw	s6,128(sp)
4000206c:	5bf6                	lw	s7,124(sp)
4000206e:	5c66                	lw	s8,120(sp)
40002070:	5cd6                	lw	s9,116(sp)
40002072:	5d46                	lw	s10,112(sp)
40002074:	5db6                	lw	s11,108(sp)
40002076:	4501                	li	a0,0
40002078:	610d                	addi	sp,sp,160
4000207a:	8082                	ret
4000207c:	02b608b3          	mul	a7,a2,a1
40002080:	00279713          	slli	a4,a5,0x2
40002084:	0860                	addi	s0,sp,28
40002086:	0605                	addi	a2,a2,1
40002088:	9722                	add	a4,a4,s0
4000208a:	0642                	slli	a2,a2,0x10
4000208c:	8241                	srli	a2,a2,0x10
4000208e:	989a                	add	a7,a7,t1
40002090:	01172623          	sw	a7,12(a4)
40002094:	bee9                	j	40001c6e <main+0xbe>
40002096:	4705                	li	a4,1
40002098:	b8e79ae3          	bne	a5,a4,40001c2c <main+0x7c>
4000209c:	02011783          	lh	a5,32(sp)
400020a0:	b80796e3          	bnez	a5,40001c2c <main+0x7c>
400020a4:	341537b7          	lui	a5,0x34153
400020a8:	41578793          	addi	a5,a5,1045 # 34153415 <_tbss_end+0x34153415>
400020ac:	ce3e                	sw	a5,28(sp)
400020ae:	06600793          	li	a5,102
400020b2:	02f11023          	sh	a5,32(sp)
400020b6:	be9d                	j	40001c2c <main+0x7c>
400020b8:	479d                	li	a5,7
400020ba:	de3e                	sw	a5,60(sp)
400020bc:	b68d                	j	40001c1e <main+0x6e>
400020be:	000ca783          	lw	a5,0(s9)
400020c2:	4401                	li	s0,0
400020c4:	00000917          	auipc	s2,0x0
400020c8:	66c90913          	addi	s2,s2,1644 # 40002730 <errpat+0x558>
400020cc:	dbbd                	beqz	a5,40002042 <main+0x492>
400020ce:	00441793          	slli	a5,s0,0x4
400020d2:	97a2                	add	a5,a5,s0
400020d4:	1098                	addi	a4,sp,96
400020d6:	078a                	slli	a5,a5,0x2
400020d8:	97ba                	add	a5,a5,a4
400020da:	ffa7d603          	lhu	a2,-6(a5)
400020de:	85a2                	mv	a1,s0
400020e0:	854a                	mv	a0,s2
400020e2:	bb6ff0ef          	jal	ra,40001498 <ee_printf>
400020e6:	0405                	addi	s0,s0,1
400020e8:	000ca783          	lw	a5,0(s9)
400020ec:	0442                	slli	s0,s0,0x10
400020ee:	8041                	srli	s0,s0,0x10
400020f0:	fcf46fe3          	bltu	s0,a5,400020ce <main+0x51e>
400020f4:	bf21                	j	4000200c <main+0x45c>
400020f6:	00000517          	auipc	a0,0x0
400020fa:	6d250513          	addi	a0,a0,1746 # 400027c8 <errpat+0x5f0>
400020fe:	b9aff0ef          	jal	ra,40001498 <ee_printf>
40002102:	bf89                	j	40002054 <main+0x4a4>
40002104:	00000517          	auipc	a0,0x0
40002108:	66450513          	addi	a0,a0,1636 # 40002768 <errpat+0x590>
4000210c:	b8cff0ef          	jal	ra,40001498 <ee_printf>
40002110:	b791                	j	40002054 <main+0x4a4>
40002112:	00000517          	auipc	a0,0x0
40002116:	51250513          	addi	a0,a0,1298 # 40002624 <errpat+0x44c>
4000211a:	b7eff0ef          	jal	ra,40001498 <ee_printf>
4000211e:	0405                	addi	s0,s0,1
40002120:	b509                	j	40001f22 <main+0x372>
40002122:	000ca783          	lw	a5,0(s9)
40002126:	54e2                	lw	s1,56(sp)
40002128:	85d2                	mv	a1,s4
4000212a:	854e                	mv	a0,s3
4000212c:	02f484b3          	mul	s1,s1,a5
40002130:	bf9fe0ef          	jal	ra,40000d28 <time_in_secs>
40002134:	85aa                	mv	a1,a0
40002136:	00000517          	auipc	a0,0x0
4000213a:	4d650513          	addi	a0,a0,1238 # 4000260c <errpat+0x434>
4000213e:	02b4d5b3          	divu	a1,s1,a1
40002142:	b56ff0ef          	jal	ra,40001498 <ee_printf>
40002146:	b3f9                	j	40001f14 <main+0x364>
40002148:	8b91                	andi	a5,a5,4
4000214a:	ee079ce3          	bnez	a5,40002042 <main+0x492>
4000214e:	bd7d                	j	4000200c <main+0x45c>
40002150:	00000517          	auipc	a0,0x0
40002154:	32450513          	addi	a0,a0,804 # 40002474 <errpat+0x29c>
40002158:	b40ff0ef          	jal	ra,40001498 <ee_printf>
4000215c:	4d05                	li	s10,1
4000215e:	b105                	j	40001d7e <main+0x1ce>
40002160:	00000517          	auipc	a0,0x0
40002164:	2e450513          	addi	a0,a0,740 # 40002444 <errpat+0x26c>
40002168:	b30ff0ef          	jal	ra,40001498 <ee_printf>
4000216c:	4d01                	li	s10,0
4000216e:	b901                	j	40001d7e <main+0x1ce>
40002170:	00000517          	auipc	a0,0x0
40002174:	39450513          	addi	a0,a0,916 # 40002504 <errpat+0x32c>
40002178:	b20ff0ef          	jal	ra,40001498 <ee_printf>
4000217c:	4d11                	li	s10,4
4000217e:	b101                	j	40001d7e <main+0x1ce>
40002180:	4401                	li	s0,0
40002182:	b3a9                	j	40001ecc <main+0x31c>

Disassembly of section .rodata:

40002184 <list_known_crc>:
40002184:	d4b0                	sw	a2,104(s1)
40002186:	3340                	fld	fs0,160(a4)
40002188:	6a79                	lui	s4,0x1e
4000218a:	e714                	fsw	fa3,8(a4)
4000218c:	e3c1                	bnez	a5,4000220c <errpat+0x34>
	...

40002190 <matrix_known_crc>:
40002190:	be52                	fsd	fs4,312(sp)
40002192:	1199                	addi	gp,gp,-26
40002194:	5608                	lw	a0,40(a2)
40002196:	07471fd7          	0x7471fd7
	...

4000219c <state_known_crc>:
4000219c:	39bf5e47          	fmsub.s	ft8,ft10,fs11,ft7,unknown
400021a0:	e5a4                	fsw	fs1,72(a1)
400021a2:	8e3a                	mv	t3,a4
400021a4:	8d84                	0x8d84
	...

400021a8 <intpat>:
400021a8:	28d4                	fld	fa3,144(s1)
400021aa:	4000                	lw	s0,0(s0)
400021ac:	28dc                	fld	fa5,144(s1)
400021ae:	4000                	lw	s0,0(s0)
400021b0:	28e4                	fld	fs1,208(s1)
400021b2:	4000                	lw	s0,0(s0)
400021b4:	28ec                	fld	fa1,208(s1)
400021b6:	4000                	lw	s0,0(s0)

400021b8 <floatpat>:
400021b8:	28a4                	fld	fs1,80(s1)
400021ba:	4000                	lw	s0,0(s0)
400021bc:	28b0                	fld	fa2,80(s1)
400021be:	4000                	lw	s0,0(s0)
400021c0:	28bc                	fld	fa5,80(s1)
400021c2:	4000                	lw	s0,0(s0)
400021c4:	28c8                	fld	fa0,144(s1)
400021c6:	4000                	lw	s0,0(s0)

400021c8 <scipat>:
400021c8:	2874                	fld	fa3,208(s0)
400021ca:	4000                	lw	s0,0(s0)
400021cc:	2880                	fld	fs0,16(s1)
400021ce:	4000                	lw	s0,0(s0)
400021d0:	288c                	fld	fa1,16(s1)
400021d2:	4000                	lw	s0,0(s0)
400021d4:	2898                	fld	fa4,16(s1)
400021d6:	4000                	lw	s0,0(s0)

400021d8 <errpat>:
400021d8:	2844                	fld	fs1,144(s0)
400021da:	4000                	lw	s0,0(s0)
400021dc:	2850                	fld	fa2,144(s0)
400021de:	4000                	lw	s0,0(s0)
400021e0:	285c                	fld	fa5,144(s0)
400021e2:	4000                	lw	s0,0(s0)
400021e4:	2868                	fld	fa0,208(s0)
400021e6:	4000                	lw	s0,0(s0)
400021e8:	f00e                	fsw	ft3,32(sp)
400021ea:	ffff                	0xffff
400021ec:	efea                	fsw	fs10,220(sp)
400021ee:	ffff                	0xffff
400021f0:	eff4                	fsw	fa3,92(a5)
400021f2:	ffff                	0xffff
400021f4:	effe                	fsw	ft11,220(sp)
400021f6:	ffff                	0xffff
400021f8:	f004                	fsw	fs1,32(s0)
400021fa:	ffff                	0xffff
400021fc:	efe0                	fsw	fs0,92(a5)
400021fe:	ffff                	0xffff
40002200:	f3d4                	fsw	fa3,36(a5)
40002202:	ffff                	0xffff
40002204:	f370                	fsw	fa2,100(a4)
40002206:	ffff                	0xffff
40002208:	f370                	fsw	fa2,100(a4)
4000220a:	ffff                	0xffff
4000220c:	f3cc                	fsw	fa1,36(a5)
4000220e:	ffff                	0xffff
40002210:	f370                	fsw	fa2,100(a4)
40002212:	ffff                	0xffff
40002214:	f370                	fsw	fa2,100(a4)
40002216:	ffff                	0xffff
40002218:	f370                	fsw	fa2,100(a4)
4000221a:	ffff                	0xffff
4000221c:	f370                	fsw	fa2,100(a4)
4000221e:	ffff                	0xffff
40002220:	f370                	fsw	fa2,100(a4)
40002222:	ffff                	0xffff
40002224:	f370                	fsw	fa2,100(a4)
40002226:	ffff                	0xffff
40002228:	f370                	fsw	fa2,100(a4)
4000222a:	ffff                	0xffff
4000222c:	f3c4                	fsw	fs1,36(a5)
4000222e:	ffff                	0xffff
40002230:	f370                	fsw	fa2,100(a4)
40002232:	ffff                	0xffff
40002234:	f3bc                	fsw	fa5,96(a5)
40002236:	ffff                	0xffff
40002238:	f370                	fsw	fa2,100(a4)
4000223a:	ffff                	0xffff
4000223c:	f370                	fsw	fa2,100(a4)
4000223e:	ffff                	0xffff
40002240:	f3b4                	fsw	fa3,96(a5)
40002242:	ffff                	0xffff
40002244:	f512                	fsw	ft4,168(sp)
40002246:	ffff                	0xffff
40002248:	f3be                	fsw	fa5,228(sp)
4000224a:	ffff                	0xffff
4000224c:	f3be                	fsw	fa5,228(sp)
4000224e:	ffff                	0xffff
40002250:	f3be                	fsw	fa5,228(sp)
40002252:	ffff                	0xffff
40002254:	f3be                	fsw	fa5,228(sp)
40002256:	ffff                	0xffff
40002258:	f3be                	fsw	fa5,228(sp)
4000225a:	ffff                	0xffff
4000225c:	f3be                	fsw	fa5,228(sp)
4000225e:	ffff                	0xffff
40002260:	f3be                	fsw	fa5,228(sp)
40002262:	ffff                	0xffff
40002264:	f3be                	fsw	fa5,228(sp)
40002266:	ffff                	0xffff
40002268:	f3be                	fsw	fa5,228(sp)
4000226a:	ffff                	0xffff
4000226c:	f3be                	fsw	fa5,228(sp)
4000226e:	ffff                	0xffff
40002270:	f3be                	fsw	fa5,228(sp)
40002272:	ffff                	0xffff
40002274:	f3be                	fsw	fa5,228(sp)
40002276:	ffff                	0xffff
40002278:	f3be                	fsw	fa5,228(sp)
4000227a:	ffff                	0xffff
4000227c:	f3be                	fsw	fa5,228(sp)
4000227e:	ffff                	0xffff
40002280:	f3be                	fsw	fa5,228(sp)
40002282:	ffff                	0xffff
40002284:	f3be                	fsw	fa5,228(sp)
40002286:	ffff                	0xffff
40002288:	f3be                	fsw	fa5,228(sp)
4000228a:	ffff                	0xffff
4000228c:	f3be                	fsw	fa5,228(sp)
4000228e:	ffff                	0xffff
40002290:	f3be                	fsw	fa5,228(sp)
40002292:	ffff                	0xffff
40002294:	f3be                	fsw	fa5,228(sp)
40002296:	ffff                	0xffff
40002298:	f3be                	fsw	fa5,228(sp)
4000229a:	ffff                	0xffff
4000229c:	f3be                	fsw	fa5,228(sp)
4000229e:	ffff                	0xffff
400022a0:	f506                	fsw	ft1,168(sp)
400022a2:	ffff                	0xffff
400022a4:	f3be                	fsw	fa5,228(sp)
400022a6:	ffff                	0xffff
400022a8:	f3be                	fsw	fa5,228(sp)
400022aa:	ffff                	0xffff
400022ac:	f3be                	fsw	fa5,228(sp)
400022ae:	ffff                	0xffff
400022b0:	f3be                	fsw	fa5,228(sp)
400022b2:	ffff                	0xffff
400022b4:	f3be                	fsw	fa5,228(sp)
400022b6:	ffff                	0xffff
400022b8:	f3be                	fsw	fa5,228(sp)
400022ba:	ffff                	0xffff
400022bc:	f3be                	fsw	fa5,228(sp)
400022be:	ffff                	0xffff
400022c0:	f3be                	fsw	fa5,228(sp)
400022c2:	ffff                	0xffff
400022c4:	f7c2                	fsw	fa6,236(sp)
400022c6:	ffff                	0xffff
400022c8:	f3be                	fsw	fa5,228(sp)
400022ca:	ffff                	0xffff
400022cc:	f61c                	fsw	fa5,40(a2)
400022ce:	ffff                	0xffff
400022d0:	f65e                	fsw	fs7,44(sp)
400022d2:	ffff                	0xffff
400022d4:	f3be                	fsw	fa5,228(sp)
400022d6:	ffff                	0xffff
400022d8:	f3be                	fsw	fa5,228(sp)
400022da:	ffff                	0xffff
400022dc:	f3be                	fsw	fa5,228(sp)
400022de:	ffff                	0xffff
400022e0:	f3be                	fsw	fa5,228(sp)
400022e2:	ffff                	0xffff
400022e4:	f65e                	fsw	fs7,44(sp)
400022e6:	ffff                	0xffff
400022e8:	f3be                	fsw	fa5,228(sp)
400022ea:	ffff                	0xffff
400022ec:	f3be                	fsw	fa5,228(sp)
400022ee:	ffff                	0xffff
400022f0:	f3be                	fsw	fa5,228(sp)
400022f2:	ffff                	0xffff
400022f4:	f3be                	fsw	fa5,228(sp)
400022f6:	ffff                	0xffff
400022f8:	f3be                	fsw	fa5,228(sp)
400022fa:	ffff                	0xffff
400022fc:	f4fe                	fsw	ft11,104(sp)
400022fe:	ffff                	0xffff
40002300:	f4e0                	fsw	fs0,108(s1)
40002302:	ffff                	0xffff
40002304:	f3be                	fsw	fa5,228(sp)
40002306:	ffff                	0xffff
40002308:	f3be                	fsw	fa5,228(sp)
4000230a:	ffff                	0xffff
4000230c:	f466                	fsw	fs9,40(sp)
4000230e:	ffff                	0xffff
40002310:	f3be                	fsw	fa5,228(sp)
40002312:	ffff                	0xffff
40002314:	f45c                	fsw	fa5,44(s0)
40002316:	ffff                	0xffff
40002318:	f3be                	fsw	fa5,228(sp)
4000231a:	ffff                	0xffff
4000231c:	f3be                	fsw	fa5,228(sp)
4000231e:	ffff                	0xffff
40002320:	f440                	fsw	fs0,44(s0)
40002322:	ffff                	0xffff
40002324:	f5b2                	fsw	fa2,232(sp)
40002326:	ffff                	0xffff
40002328:	f2da                	fsw	fs6,100(sp)
4000232a:	ffff                	0xffff
4000232c:	f2da                	fsw	fs6,100(sp)
4000232e:	ffff                	0xffff
40002330:	f2da                	fsw	fs6,100(sp)
40002332:	ffff                	0xffff
40002334:	f2da                	fsw	fs6,100(sp)
40002336:	ffff                	0xffff
40002338:	f2da                	fsw	fs6,100(sp)
4000233a:	ffff                	0xffff
4000233c:	f2da                	fsw	fs6,100(sp)
4000233e:	ffff                	0xffff
40002340:	f2da                	fsw	fs6,100(sp)
40002342:	ffff                	0xffff
40002344:	f2da                	fsw	fs6,100(sp)
40002346:	ffff                	0xffff
40002348:	f2da                	fsw	fs6,100(sp)
4000234a:	ffff                	0xffff
4000234c:	f2da                	fsw	fs6,100(sp)
4000234e:	ffff                	0xffff
40002350:	f2da                	fsw	fs6,100(sp)
40002352:	ffff                	0xffff
40002354:	f2da                	fsw	fs6,100(sp)
40002356:	ffff                	0xffff
40002358:	f2da                	fsw	fs6,100(sp)
4000235a:	ffff                	0xffff
4000235c:	f2da                	fsw	fs6,100(sp)
4000235e:	ffff                	0xffff
40002360:	f2da                	fsw	fs6,100(sp)
40002362:	ffff                	0xffff
40002364:	f2da                	fsw	fs6,100(sp)
40002366:	ffff                	0xffff
40002368:	f2da                	fsw	fs6,100(sp)
4000236a:	ffff                	0xffff
4000236c:	f2da                	fsw	fs6,100(sp)
4000236e:	ffff                	0xffff
40002370:	f2da                	fsw	fs6,100(sp)
40002372:	ffff                	0xffff
40002374:	f2da                	fsw	fs6,100(sp)
40002376:	ffff                	0xffff
40002378:	f2da                	fsw	fs6,100(sp)
4000237a:	ffff                	0xffff
4000237c:	f2da                	fsw	fs6,100(sp)
4000237e:	ffff                	0xffff
40002380:	f5aa                	fsw	fa0,232(sp)
40002382:	ffff                	0xffff
40002384:	f2da                	fsw	fs6,100(sp)
40002386:	ffff                	0xffff
40002388:	f2da                	fsw	fs6,100(sp)
4000238a:	ffff                	0xffff
4000238c:	f2da                	fsw	fs6,100(sp)
4000238e:	ffff                	0xffff
40002390:	f2da                	fsw	fs6,100(sp)
40002392:	ffff                	0xffff
40002394:	f2da                	fsw	fs6,100(sp)
40002396:	ffff                	0xffff
40002398:	f2da                	fsw	fs6,100(sp)
4000239a:	ffff                	0xffff
4000239c:	f2da                	fsw	fs6,100(sp)
4000239e:	ffff                	0xffff
400023a0:	f2da                	fsw	fs6,100(sp)
400023a2:	ffff                	0xffff
400023a4:	f5b6                	fsw	fa3,232(sp)
400023a6:	ffff                	0xffff
400023a8:	f2da                	fsw	fs6,100(sp)
400023aa:	ffff                	0xffff
400023ac:	f53a                	fsw	fa4,168(sp)
400023ae:	ffff                	0xffff
400023b0:	f58a                	fsw	ft2,232(sp)
400023b2:	ffff                	0xffff
400023b4:	f2da                	fsw	fs6,100(sp)
400023b6:	ffff                	0xffff
400023b8:	f2da                	fsw	fs6,100(sp)
400023ba:	ffff                	0xffff
400023bc:	f2da                	fsw	fs6,100(sp)
400023be:	ffff                	0xffff
400023c0:	f2da                	fsw	fs6,100(sp)
400023c2:	ffff                	0xffff
400023c4:	f58a                	fsw	ft2,232(sp)
400023c6:	ffff                	0xffff
400023c8:	f2da                	fsw	fs6,100(sp)
400023ca:	ffff                	0xffff
400023cc:	f2da                	fsw	fs6,100(sp)
400023ce:	ffff                	0xffff
400023d0:	f2da                	fsw	fs6,100(sp)
400023d2:	ffff                	0xffff
400023d4:	f2da                	fsw	fs6,100(sp)
400023d6:	ffff                	0xffff
400023d8:	f2da                	fsw	fs6,100(sp)
400023da:	ffff                	0xffff
400023dc:	f5a6                	fsw	fs1,232(sp)
400023de:	ffff                	0xffff
400023e0:	f3fe                	fsw	ft11,228(sp)
400023e2:	ffff                	0xffff
400023e4:	f2da                	fsw	fs6,100(sp)
400023e6:	ffff                	0xffff
400023e8:	f2da                	fsw	fs6,100(sp)
400023ea:	ffff                	0xffff
400023ec:	f384                	fsw	fs1,32(a5)
400023ee:	ffff                	0xffff
400023f0:	f2da                	fsw	fs6,100(sp)
400023f2:	ffff                	0xffff
400023f4:	f77e                	fsw	ft11,172(sp)
400023f6:	ffff                	0xffff
400023f8:	f2da                	fsw	fs6,100(sp)
400023fa:	ffff                	0xffff
400023fc:	f2da                	fsw	fs6,100(sp)
400023fe:	ffff                	0xffff
40002400:	f77a                	fsw	ft10,172(sp)
40002402:	ffff                	0xffff

Disassembly of section .rodata.str1.4:

40002404 <.rodata.str1.4>:
40002404:	4953414b          	fnmsub.s	ft2,ft6,fs5,fs1,rmm
40002408:	4752                	lw	a4,20(sp)
4000240a:	0a41                	addi	s4,s4,16
4000240c:	0000                	unimp
4000240e:	0000                	unimp
40002410:	6e49                	lui	t3,0x12
40002412:	7469                	lui	s0,0xffffa
40002414:	4220                	lw	s0,64(a2)
40002416:	6765                	lui	a4,0x19
40002418:	6e69                	lui	t3,0x1a
4000241a:	000a                	c.slli	zero,0x2
4000241c:	6e49                	lui	t3,0x12
4000241e:	7469                	lui	s0,0xffffa
40002420:	4c20                	lw	s0,88(s0)
40002422:	7369                	lui	t1,0xffffa
40002424:	0a74                	addi	a3,sp,284
40002426:	0000                	unimp
40002428:	6e49                	lui	t3,0x12
4000242a:	7469                	lui	s0,0xffffa
4000242c:	4d20                	lw	s0,88(a0)
4000242e:	7461                	lui	s0,0xffff8
40002430:	6972                	flw	fs2,28(sp)
40002432:	0a78                	addi	a4,sp,284
40002434:	0000                	unimp
40002436:	0000                	unimp
40002438:	6e49                	lui	t3,0x12
4000243a:	7469                	lui	s0,0xffffa
4000243c:	5320                	lw	s0,96(a4)
4000243e:	6174                	flw	fa3,68(a0)
40002440:	6574                	flw	fa3,76(a0)
40002442:	000a                	c.slli	zero,0x2
40002444:	6b36                	flw	fs6,76(sp)
40002446:	7020                	flw	fs0,96(s0)
40002448:	7265                	lui	tp,0xffff9
4000244a:	6f66                	flw	ft10,88(sp)
4000244c:	6d72                	flw	fs10,28(sp)
4000244e:	6e61                	lui	t3,0x18
40002450:	72206563          	bltu	zero,sp,40002b7a <static_memblk+0x16e>
40002454:	6e75                	lui	t3,0x1d
40002456:	7020                	flw	fs0,96(s0)
40002458:	7261                	lui	tp,0xffff8
4000245a:	6d61                	lui	s10,0x18
4000245c:	7465                	lui	s0,0xffff9
4000245e:	7265                	lui	tp,0xffff9
40002460:	6f662073          	csrs	0x6f6,a2
40002464:	2072                	fld	ft0,280(sp)
40002466:	65726f63          	bltu	tp,s7,40002ac4 <static_memblk+0xb8>
4000246a:	616d                	addi	sp,sp,240
4000246c:	6b72                	flw	fs6,28(sp)
4000246e:	0a2e                	slli	s4,s4,0xb
40002470:	0000                	unimp
40002472:	0000                	unimp
40002474:	6b36                	flw	fs6,76(sp)
40002476:	7620                	flw	fs0,104(a2)
40002478:	6c61                	lui	s8,0x18
4000247a:	6469                	lui	s0,0x1a
4000247c:	7461                	lui	s0,0xffff8
4000247e:	6f69                	lui	t5,0x1a
40002480:	206e                	fld	ft0,216(sp)
40002482:	7572                	flw	fa0,60(sp)
40002484:	206e                	fld	ft0,216(sp)
40002486:	6170                	flw	fa2,68(a0)
40002488:	6172                	flw	ft2,28(sp)
4000248a:	656d                	lui	a0,0x1b
4000248c:	6574                	flw	fa3,76(a0)
4000248e:	7372                	flw	ft6,60(sp)
40002490:	6620                	flw	fs0,72(a2)
40002492:	6320726f          	jal	tp,40009ac4 <_end+0x68e8>
40002496:	6d65726f          	jal	tp,40059b6c <_end+0x56990>
4000249a:	7261                	lui	tp,0xffff8
4000249c:	000a2e6b          	0xa2e6b
400024a0:	7250                	flw	fa2,36(a2)
400024a2:	6c69666f          	jal	a2,40098b68 <_end+0x9598c>
400024a6:	2065                	jal	4000254e <errpat+0x376>
400024a8:	656e6567          	0x656e6567
400024ac:	6172                	flw	ft2,28(sp)
400024ae:	6974                	flw	fa3,84(a0)
400024b0:	72206e6f          	jal	t3,40008bd2 <_end+0x59f6>
400024b4:	6e75                	lui	t3,0x1d
400024b6:	7020                	flw	fs0,96(s0)
400024b8:	7261                	lui	tp,0xffff8
400024ba:	6d61                	lui	s10,0x18
400024bc:	7465                	lui	s0,0xffff9
400024be:	7265                	lui	tp,0xffff9
400024c0:	6f662073          	csrs	0x6f6,a2
400024c4:	2072                	fld	ft0,280(sp)
400024c6:	65726f63          	bltu	tp,s7,40002b24 <static_memblk+0x118>
400024ca:	616d                	addi	sp,sp,240
400024cc:	6b72                	flw	fs6,28(sp)
400024ce:	0a2e                	slli	s4,s4,0xb
400024d0:	0000                	unimp
400024d2:	0000                	unimp
400024d4:	4b32                	lw	s6,12(sp)
400024d6:	7020                	flw	fs0,96(s0)
400024d8:	7265                	lui	tp,0xffff9
400024da:	6f66                	flw	ft10,88(sp)
400024dc:	6d72                	flw	fs10,28(sp)
400024de:	6e61                	lui	t3,0x18
400024e0:	72206563          	bltu	zero,sp,40002c0a <static_memblk+0x1fe>
400024e4:	6e75                	lui	t3,0x1d
400024e6:	7020                	flw	fs0,96(s0)
400024e8:	7261                	lui	tp,0xffff8
400024ea:	6d61                	lui	s10,0x18
400024ec:	7465                	lui	s0,0xffff9
400024ee:	7265                	lui	tp,0xffff9
400024f0:	6f662073          	csrs	0x6f6,a2
400024f4:	2072                	fld	ft0,280(sp)
400024f6:	65726f63          	bltu	tp,s7,40002b54 <static_memblk+0x148>
400024fa:	616d                	addi	sp,sp,240
400024fc:	6b72                	flw	fs6,28(sp)
400024fe:	0a2e                	slli	s4,s4,0xb
40002500:	0000                	unimp
40002502:	0000                	unimp
40002504:	4b32                	lw	s6,12(sp)
40002506:	7620                	flw	fs0,104(a2)
40002508:	6c61                	lui	s8,0x18
4000250a:	6469                	lui	s0,0x1a
4000250c:	7461                	lui	s0,0xffff8
4000250e:	6f69                	lui	t5,0x1a
40002510:	206e                	fld	ft0,216(sp)
40002512:	7572                	flw	fa0,60(sp)
40002514:	206e                	fld	ft0,216(sp)
40002516:	6170                	flw	fa2,68(a0)
40002518:	6172                	flw	ft2,28(sp)
4000251a:	656d                	lui	a0,0x1b
4000251c:	6574                	flw	fa3,76(a0)
4000251e:	7372                	flw	ft6,60(sp)
40002520:	6620                	flw	fs0,72(a2)
40002522:	6320726f          	jal	tp,40009b54 <_end+0x6978>
40002526:	6d65726f          	jal	tp,40059bfc <_end+0x56a20>
4000252a:	7261                	lui	tp,0xffff8
4000252c:	000a2e6b          	0xa2e6b
40002530:	5d75255b          	0x5d75255b
40002534:	5245                	li	tp,-15
40002536:	4f52                	lw	t5,20(sp)
40002538:	2152                	fld	ft2,272(sp)
4000253a:	6c20                	flw	fs0,88(s0)
4000253c:	7369                	lui	t1,0xffffa
4000253e:	2074                	fld	fa3,192(s0)
40002540:	20637263          	bgeu	t1,t1,40002744 <errpat+0x56c>
40002544:	7830                	flw	fa2,112(s0)
40002546:	3025                	jal	40001d6e <main+0x1be>
40002548:	7834                	flw	fa3,112(s0)
4000254a:	2d20                	fld	fs0,88(a0)
4000254c:	7320                	flw	fs0,96(a4)
4000254e:	6f68                	flw	fa0,92(a4)
40002550:	6c75                	lui	s8,0x1d
40002552:	2064                	fld	fs1,192(s0)
40002554:	6562                	flw	fa0,24(sp)
40002556:	3020                	fld	fs0,96(s0)
40002558:	2578                	fld	fa4,200(a0)
4000255a:	3430                	fld	fa2,104(s0)
4000255c:	0a78                	addi	a4,sp,284
4000255e:	0000                	unimp
40002560:	5d75255b          	0x5d75255b
40002564:	5245                	li	tp,-15
40002566:	4f52                	lw	t5,20(sp)
40002568:	2152                	fld	ft2,272(sp)
4000256a:	6d20                	flw	fs0,88(a0)
4000256c:	7461                	lui	s0,0xffff8
4000256e:	6972                	flw	fs2,28(sp)
40002570:	2078                	fld	fa4,192(s0)
40002572:	20637263          	bgeu	t1,t1,40002776 <errpat+0x59e>
40002576:	7830                	flw	fa2,112(s0)
40002578:	3025                	jal	40001da0 <main+0x1f0>
4000257a:	7834                	flw	fa3,112(s0)
4000257c:	2d20                	fld	fs0,88(a0)
4000257e:	7320                	flw	fs0,96(a4)
40002580:	6f68                	flw	fa0,92(a4)
40002582:	6c75                	lui	s8,0x1d
40002584:	2064                	fld	fs1,192(s0)
40002586:	6562                	flw	fa0,24(sp)
40002588:	3020                	fld	fs0,96(s0)
4000258a:	2578                	fld	fa4,200(a0)
4000258c:	3430                	fld	fa2,104(s0)
4000258e:	0a78                	addi	a4,sp,284
40002590:	0000                	unimp
40002592:	0000                	unimp
40002594:	5d75255b          	0x5d75255b
40002598:	5245                	li	tp,-15
4000259a:	4f52                	lw	t5,20(sp)
4000259c:	2152                	fld	ft2,272(sp)
4000259e:	7320                	flw	fs0,96(a4)
400025a0:	6174                	flw	fa3,68(a0)
400025a2:	6574                	flw	fa3,76(a0)
400025a4:	6320                	flw	fs0,64(a4)
400025a6:	6372                	flw	ft6,28(sp)
400025a8:	3020                	fld	fs0,96(s0)
400025aa:	2578                	fld	fa4,200(a0)
400025ac:	3430                	fld	fa2,104(s0)
400025ae:	2078                	fld	fa4,192(s0)
400025b0:	202d                	jal	400025da <errpat+0x402>
400025b2:	756f6873          	csrrsi	a6,0x756,30
400025b6:	646c                	flw	fa1,76(s0)
400025b8:	6220                	flw	fs0,64(a2)
400025ba:	2065                	jal	40002662 <errpat+0x48a>
400025bc:	7830                	flw	fa2,112(s0)
400025be:	3025                	jal	40001de6 <main+0x236>
400025c0:	7834                	flw	fa3,112(s0)
400025c2:	000a                	c.slli	zero,0x2
400025c4:	65726f43          	0x65726f43
400025c8:	614d                	addi	sp,sp,176
400025ca:	6b72                	flw	fs6,28(sp)
400025cc:	5320                	lw	s0,96(a4)
400025ce:	7a69                	lui	s4,0xffffa
400025d0:	2065                	jal	40002678 <errpat+0x4a0>
400025d2:	2020                	fld	fs0,64(s0)
400025d4:	3a20                	fld	fs0,112(a2)
400025d6:	2520                	fld	fs0,72(a0)
400025d8:	756c                	flw	fa1,108(a0)
400025da:	000a                	c.slli	zero,0x2
400025dc:	6f54                	flw	fa3,28(a4)
400025de:	6174                	flw	fa3,68(a0)
400025e0:	206c                	fld	fa1,192(s0)
400025e2:	6974                	flw	fa3,84(a0)
400025e4:	20736b63          	bltu	t1,t2,400027fa <errpat+0x622>
400025e8:	2020                	fld	fs0,64(s0)
400025ea:	2020                	fld	fs0,64(s0)
400025ec:	3a20                	fld	fs0,112(a2)
400025ee:	2520                	fld	fs0,72(a0)
400025f0:	756c                	flw	fa1,108(a0)
400025f2:	000a                	c.slli	zero,0x2
400025f4:	6f54                	flw	fa3,28(a4)
400025f6:	6174                	flw	fa3,68(a0)
400025f8:	206c                	fld	fa1,192(s0)
400025fa:	6974                	flw	fa3,84(a0)
400025fc:	656d                	lui	a0,0x1b
400025fe:	2820                	fld	fs0,80(s0)
40002600:	73636573          	csrrsi	a0,0x736,6
40002604:	3a29                	jal	40001f1e <main+0x36e>
40002606:	2520                	fld	fs0,72(a0)
40002608:	0a64                	addi	s1,sp,284
4000260a:	0000                	unimp
4000260c:	7449                	lui	s0,0xffff2
4000260e:	7265                	lui	tp,0xffff9
40002610:	7461                	lui	s0,0xffff8
40002612:	6f69                	lui	t5,0x1a
40002614:	736e                	flw	ft6,248(sp)
40002616:	6365532f          	0x6365532f
4000261a:	2020                	fld	fs0,64(s0)
4000261c:	3a20                	fld	fs0,112(a2)
4000261e:	2520                	fld	fs0,72(a0)
40002620:	0a64                	addi	s1,sp,284
40002622:	0000                	unimp
40002624:	5245                	li	tp,-15
40002626:	4f52                	lw	t5,20(sp)
40002628:	2152                	fld	ft2,272(sp)
4000262a:	4d20                	lw	s0,88(a0)
4000262c:	7375                	lui	t1,0xffffd
4000262e:	2074                	fld	fa3,192(s0)
40002630:	7865                	lui	a6,0xffff9
40002632:	6365                	lui	t1,0x19
40002634:	7475                	lui	s0,0xffffd
40002636:	2065                	jal	400026de <errpat+0x506>
40002638:	6f66                	flw	ft10,88(sp)
4000263a:	2072                	fld	ft0,280(sp)
4000263c:	7461                	lui	s0,0xffff8
4000263e:	6c20                	flw	fs0,88(s0)
40002640:	6165                	addi	sp,sp,112
40002642:	31207473          	csrrci	s0,0x312,0
40002646:	2030                	fld	fa2,64(s0)
40002648:	73636573          	csrrsi	a0,0x736,6
4000264c:	6620                	flw	fs0,72(a2)
4000264e:	6120726f          	jal	tp,40009c60 <_end+0x6a84>
40002652:	7620                	flw	fs0,104(a2)
40002654:	6c61                	lui	s8,0x18
40002656:	6469                	lui	s0,0x1a
40002658:	7220                	flw	fs0,96(a2)
4000265a:	7365                	lui	t1,0xffff9
4000265c:	6c75                	lui	s8,0x1d
4000265e:	2174                	fld	fa3,192(a0)
40002660:	000a                	c.slli	zero,0x2
40002662:	0000                	unimp
40002664:	7449                	lui	s0,0xffff2
40002666:	7265                	lui	tp,0xffff9
40002668:	7461                	lui	s0,0xffff8
4000266a:	6f69                	lui	t5,0x1a
4000266c:	736e                	flw	ft6,248(sp)
4000266e:	2020                	fld	fs0,64(s0)
40002670:	2020                	fld	fs0,64(s0)
40002672:	2020                	fld	fs0,64(s0)
40002674:	3a20                	fld	fs0,112(a2)
40002676:	2520                	fld	fs0,72(a0)
40002678:	756c                	flw	fa1,108(a0)
4000267a:	000a                	c.slli	zero,0x2
4000267c:	39434347          	fmsub.s	ft6,ft6,fs4,ft7,rmm
40002680:	322e                	fld	ft4,232(sp)
40002682:	302e                	fld	ft0,232(sp)
40002684:	0000                	unimp
40002686:	0000                	unimp
40002688:	706d6f43          	fmadd.s	ft10,fs10,ft6,fa4,unknown
4000268c:	6c69                	lui	s8,0x1a
4000268e:	7265                	lui	tp,0xffff9
40002690:	7620                	flw	fs0,104(a2)
40002692:	7265                	lui	tp,0xffff9
40002694:	6e6f6973          	csrrsi	s2,0x6e6,30
40002698:	3a20                	fld	fs0,112(a2)
4000269a:	2520                	fld	fs0,72(a0)
4000269c:	00000a73          	0xa73
400026a0:	4f2d                	li	t5,11
400026a2:	0032                	c.slli	zero,0xc
400026a4:	706d6f43          	fmadd.s	ft10,fs10,ft6,fa4,unknown
400026a8:	6c69                	lui	s8,0x1a
400026aa:	7265                	lui	tp,0xffff9
400026ac:	6620                	flw	fs0,72(a2)
400026ae:	616c                	flw	fa1,68(a0)
400026b0:	20207367          	0x20207367
400026b4:	3a20                	fld	fs0,112(a2)
400026b6:	2520                	fld	fs0,72(a0)
400026b8:	00000a73          	0xa73
400026bc:	43415453          	0x43415453
400026c0:	0000004b          	fnmsub.s	ft0,ft0,ft0,ft0,rne
400026c4:	654d                	lui	a0,0x13
400026c6:	6f6d                	lui	t5,0x1b
400026c8:	7972                	flw	fs2,60(sp)
400026ca:	6c20                	flw	fs0,88(s0)
400026cc:	7461636f          	jal	t1,40018e12 <_end+0x15c36>
400026d0:	6f69                	lui	t5,0x1a
400026d2:	206e                	fld	ft0,216(sp)
400026d4:	3a20                	fld	fs0,112(a2)
400026d6:	2520                	fld	fs0,72(a0)
400026d8:	00000a73          	0xa73
400026dc:	64656573          	csrrsi	a0,0x646,10
400026e0:	20637263          	bgeu	t1,t1,400028e4 <errpat+0x70c>
400026e4:	2020                	fld	fs0,64(s0)
400026e6:	2020                	fld	fs0,64(s0)
400026e8:	2020                	fld	fs0,64(s0)
400026ea:	2020                	fld	fs0,64(s0)
400026ec:	3a20                	fld	fs0,112(a2)
400026ee:	3020                	fld	fs0,96(s0)
400026f0:	2578                	fld	fa4,200(a0)
400026f2:	3430                	fld	fa2,104(s0)
400026f4:	0a78                	addi	a4,sp,284
400026f6:	0000                	unimp
400026f8:	5d64255b          	0x5d64255b
400026fc:	6c637263          	bgeu	t1,t1,40002dc0 <static_memblk+0x3b4>
40002700:	7369                	lui	t1,0xffffa
40002702:	2074                	fld	fa3,192(s0)
40002704:	2020                	fld	fs0,64(s0)
40002706:	2020                	fld	fs0,64(s0)
40002708:	2020                	fld	fs0,64(s0)
4000270a:	203a                	fld	ft0,392(sp)
4000270c:	7830                	flw	fa2,112(s0)
4000270e:	3025                	jal	40001f36 <main+0x386>
40002710:	7834                	flw	fa3,112(s0)
40002712:	000a                	c.slli	zero,0x2
40002714:	5d64255b          	0x5d64255b
40002718:	6d637263          	bgeu	t1,s6,40002ddc <static_memblk+0x3d0>
4000271c:	7461                	lui	s0,0xffff8
4000271e:	6972                	flw	fs2,28(sp)
40002720:	2078                	fld	fa4,192(s0)
40002722:	2020                	fld	fs0,64(s0)
40002724:	2020                	fld	fs0,64(s0)
40002726:	203a                	fld	ft0,392(sp)
40002728:	7830                	flw	fa2,112(s0)
4000272a:	3025                	jal	40001f52 <main+0x3a2>
4000272c:	7834                	flw	fa3,112(s0)
4000272e:	000a                	c.slli	zero,0x2
40002730:	5d64255b          	0x5d64255b
40002734:	73637263          	bgeu	t1,s6,40002e58 <static_memblk+0x44c>
40002738:	6174                	flw	fa3,68(a0)
4000273a:	6574                	flw	fa3,76(a0)
4000273c:	2020                	fld	fs0,64(s0)
4000273e:	2020                	fld	fs0,64(s0)
40002740:	2020                	fld	fs0,64(s0)
40002742:	203a                	fld	ft0,392(sp)
40002744:	7830                	flw	fa2,112(s0)
40002746:	3025                	jal	40001f6e <main+0x3be>
40002748:	7834                	flw	fa3,112(s0)
4000274a:	000a                	c.slli	zero,0x2
4000274c:	5d64255b          	0x5d64255b
40002750:	66637263          	bgeu	t1,t1,40002db4 <static_memblk+0x3a8>
40002754:	6e69                	lui	t3,0x1a
40002756:	6c61                	lui	s8,0x18
40002758:	2020                	fld	fs0,64(s0)
4000275a:	2020                	fld	fs0,64(s0)
4000275c:	2020                	fld	fs0,64(s0)
4000275e:	203a                	fld	ft0,392(sp)
40002760:	7830                	flw	fa2,112(s0)
40002762:	3025                	jal	40001f8a <main+0x3da>
40002764:	7834                	flw	fa3,112(s0)
40002766:	000a                	c.slli	zero,0x2
40002768:	72726f43          	fmadd.d	ft10,ft4,ft7,fa4,unknown
4000276c:	6365                	lui	t1,0x19
4000276e:	2074                	fld	fa3,192(s0)
40002770:	7265706f          	j	40059e96 <_end+0x56cba>
40002774:	7461                	lui	s0,0xffff8
40002776:	6f69                	lui	t5,0x1a
40002778:	206e                	fld	ft0,216(sp)
4000277a:	6176                	flw	ft2,92(sp)
4000277c:	696c                	flw	fa1,84(a0)
4000277e:	6164                	flw	fs1,68(a0)
40002780:	6574                	flw	fa3,76(a0)
40002782:	2e64                	fld	fs1,216(a2)
40002784:	5320                	lw	s0,96(a4)
40002786:	6565                	lui	a0,0x19
40002788:	5220                	lw	s0,96(a2)
4000278a:	4145                	li	sp,17
4000278c:	4d44                	lw	s1,28(a0)
4000278e:	2e45                	jal	40002b3e <static_memblk+0x132>
40002790:	646d                	lui	s0,0x1b
40002792:	6620                	flw	fs0,72(a2)
40002794:	7220726f          	jal	tp,40009eb6 <_end+0x6cda>
40002798:	6e75                	lui	t3,0x1d
4000279a:	6120                	flw	fs0,64(a0)
4000279c:	646e                	flw	fs0,216(sp)
4000279e:	7220                	flw	fs0,96(a2)
400027a0:	7065                	c.lui	zero,0xffff9
400027a2:	6974726f          	jal	tp,4004a638 <_end+0x4745c>
400027a6:	676e                	flw	fa4,216(sp)
400027a8:	7220                	flw	fs0,96(a2)
400027aa:	6c75                	lui	s8,0x1d
400027ac:	7365                	lui	t1,0xffff9
400027ae:	0a2e                	slli	s4,s4,0xb
400027b0:	0000                	unimp
400027b2:	0000                	unimp
400027b4:	7245                	lui	tp,0xffff1
400027b6:	6f72                	flw	ft10,28(sp)
400027b8:	7372                	flw	ft6,60(sp)
400027ba:	6420                	flw	fs0,72(s0)
400027bc:	7465                	lui	s0,0xffff9
400027be:	6365                	lui	t1,0x19
400027c0:	6574                	flw	fa3,76(a0)
400027c2:	0a64                	addi	s1,sp,284
400027c4:	0000                	unimp
400027c6:	0000                	unimp
400027c8:	6e6e6143          	fmadd.q	ft2,ft8,ft6,fa3,unknown
400027cc:	7620746f          	jal	s0,40009f2e <_end+0x6d52>
400027d0:	6c61                	lui	s8,0x18
400027d2:	6469                	lui	s0,0x1a
400027d4:	7461                	lui	s0,0xffff8
400027d6:	2065                	jal	4000287e <errpat+0x6a6>
400027d8:	7265706f          	j	40059efe <_end+0x56d22>
400027dc:	7461                	lui	s0,0xffff8
400027de:	6f69                	lui	t5,0x1a
400027e0:	206e                	fld	ft0,216(sp)
400027e2:	6f66                	flw	ft10,88(sp)
400027e4:	2072                	fld	ft0,280(sp)
400027e6:	6874                	flw	fa3,84(s0)
400027e8:	7365                	lui	t1,0xffff9
400027ea:	2065                	jal	40002892 <errpat+0x6ba>
400027ec:	64656573          	csrrsi	a0,0x646,10
400027f0:	7620                	flw	fs0,104(a2)
400027f2:	6c61                	lui	s8,0x18
400027f4:	6575                	lui	a0,0x1d
400027f6:	70202c73          	csrr	s8,0x702
400027fa:	656c                	flw	fa1,76(a0)
400027fc:	7361                	lui	t1,0xffff8
400027fe:	2065                	jal	400028a6 <errpat+0x6ce>
40002800:	706d6f63          	bltu	s10,t1,40002f1e <static_memblk+0x512>
40002804:	7261                	lui	tp,0xffff8
40002806:	2065                	jal	400028ae <errpat+0x6d6>
40002808:	68746977          	0x68746977
4000280c:	7220                	flw	fs0,96(a2)
4000280e:	7365                	lui	t1,0xffff9
40002810:	6c75                	lui	s8,0x1d
40002812:	7374                	flw	fa3,100(a4)
40002814:	6f20                	flw	fs0,88(a4)
40002816:	206e                	fld	ft0,216(sp)
40002818:	2061                	jal	400028a0 <errpat+0x6c8>
4000281a:	776f6e6b          	0x776f6e6b
4000281e:	206e                	fld	ft0,216(sp)
40002820:	6c70                	flw	fa2,92(s0)
40002822:	7461                	lui	s0,0xffff8
40002824:	6f66                	flw	ft10,88(sp)
40002826:	6d72                	flw	fs10,28(sp)
40002828:	0a2e                	slli	s4,s4,0xb
4000282a:	0000                	unimp
4000282c:	74617453          	0x74617453
40002830:	6369                	lui	t1,0x1a
40002832:	0000                	unimp
40002834:	6548                	flw	fa0,12(a0)
40002836:	7061                	c.lui	zero,0xffff8
40002838:	0000                	unimp
4000283a:	0000                	unimp
4000283c:	63617453          	0x63617453
40002840:	0000006b          	0x6b
40002844:	3054                	fld	fa3,160(s0)
40002846:	332e                	fld	ft6,232(sp)
40002848:	2d65                	jal	40002f00 <static_memblk+0x4f4>
4000284a:	4631                	li	a2,12
4000284c:	0000                	unimp
4000284e:	0000                	unimp
40002850:	542d                	li	s0,-21
40002852:	542e                	lw	s0,232(sp)
40002854:	71542b2b          	0x71542b2b
40002858:	0000                	unimp
4000285a:	0000                	unimp
4000285c:	5431                	li	s0,-20
4000285e:	65342e33          	0x65342e33
40002862:	7a34                	flw	fa3,112(a2)
40002864:	0000                	unimp
40002866:	0000                	unimp
40002868:	302e3433          	0x302e3433
4000286c:	2d65                	jal	40002f24 <static_memblk+0x518>
4000286e:	5e54                	lw	a3,60(a2)
40002870:	0000                	unimp
40002872:	0000                	unimp
40002874:	2e35                	jal	40002bb0 <static_memblk+0x1a4>
40002876:	3035                	jal	400020a2 <main+0x4f2>
40002878:	6530                	flw	fa2,72(a0)
4000287a:	0000332b          	0x332b
4000287e:	0000                	unimp
40002880:	2e2d                	jal	40002bba <static_memblk+0x1ae>
40002882:	3231                	jal	4000218e <list_known_crc+0xa>
40002884:	322d6533          	0x322d6533
40002888:	0000                	unimp
4000288a:	0000                	unimp
4000288c:	382d                	jal	400020c6 <main+0x516>
4000288e:	382b6537          	lui	a0,0x382b6
40002892:	00003233          	snez	tp,zero
40002896:	0000                	unimp
40002898:	362e302b          	0x362e302b
4000289c:	2d65                	jal	40002f54 <static_memblk+0x548>
4000289e:	3231                	jal	400021aa <intpat+0x2>
400028a0:	0000                	unimp
400028a2:	0000                	unimp
400028a4:	352e3533          	0x352e3533
400028a8:	3434                	fld	fa3,104(s0)
400028aa:	3030                	fld	fa2,96(s0)
400028ac:	0000                	unimp
400028ae:	0000                	unimp
400028b0:	312e                	fld	ft2,232(sp)
400028b2:	3332                	fld	ft6,296(sp)
400028b4:	3534                	fld	fa3,104(a0)
400028b6:	3030                	fld	fa2,96(s0)
400028b8:	0000                	unimp
400028ba:	0000                	unimp
400028bc:	312d                	jal	400024e6 <errpat+0x30e>
400028be:	3031                	jal	400020ca <main+0x51a>
400028c0:	372e                	fld	fa4,232(sp)
400028c2:	3030                	fld	fa2,96(s0)
400028c4:	0000                	unimp
400028c6:	0000                	unimp
400028c8:	362e302b          	0x362e302b
400028cc:	3434                	fld	fa3,104(s0)
400028ce:	3030                	fld	fa2,96(s0)
400028d0:	0000                	unimp
400028d2:	0000                	unimp
400028d4:	3035                	jal	40002100 <main+0x550>
400028d6:	3231                	jal	400021e2 <errpat+0xa>
400028d8:	0000                	unimp
400028da:	0000                	unimp
400028dc:	3231                	jal	400021e8 <errpat+0x10>
400028de:	00003433          	snez	s0,zero
400028e2:	0000                	unimp
400028e4:	382d                	jal	4000211e <main+0x56e>
400028e6:	00003437          	lui	s0,0x3
400028ea:	0000                	unimp
400028ec:	3232312b          	0x3232312b
400028f0:	0000                	unimp
400028f2:	0000                	unimp
400028f4:	3130                	fld	fa2,96(a0)
400028f6:	3332                	fld	ft6,296(sp)
400028f8:	3534                	fld	fa3,104(a0)
400028fa:	3736                	fld	fa4,360(sp)
400028fc:	3938                	fld	fa4,112(a0)
400028fe:	6261                	lui	tp,0x18
40002900:	66656463          	bltu	a0,t1,40002f68 <static_memblk+0x55c>
40002904:	6a696867          	0x6a696867
40002908:	6e6d6c6b          	0x6e6d6c6b
4000290c:	7271706f          	j	4001a832 <_end+0x17656>
40002910:	76757473          	csrrci	s0,0x767,10
40002914:	7a797877          	0x7a797877
40002918:	0000                	unimp
4000291a:	0000                	unimp
4000291c:	3130                	fld	fa2,96(a0)
4000291e:	3332                	fld	ft6,296(sp)
40002920:	3534                	fld	fa3,104(a0)
40002922:	3736                	fld	fa4,360(sp)
40002924:	3938                	fld	fa4,112(a0)
40002926:	4241                	li	tp,16
40002928:	46454443          	fmadd.q	fs0,fa0,ft4,fs0,rmm
4000292c:	4a494847          	fmsub.d	fa6,fs2,ft4,fs1,rmm
40002930:	4e4d4c4b          	fnmsub.q	fs8,fs10,ft4,fs1,rmm
40002934:	5251504f          	fnmadd.d	ft0,ft2,ft5,fa0,unknown
40002938:	56555453          	0x56555453
4000293c:	5a595857          	0x5a595857
40002940:	0000                	unimp
40002942:	0000                	unimp
40002944:	4e3c                	lw	a5,88(a2)
40002946:	4c55                	li	s8,21
40002948:	3e4c                	fld	fa1,184(a2)
	...

Disassembly of section .data:

4000294c <mem_name>:
4000294c:	282c                	fld	fa1,80(s0)
4000294e:	4000                	lw	s0,0(s0)
40002950:	2834                	fld	fa3,80(s0)
40002952:	4000                	lw	s0,0(s0)
40002954:	283c                	fld	fa5,80(s0)
40002956:	4000                	lw	s0,0(s0)

Disassembly of section .tohost:

40002980 <tohost>:
	...

400029c0 <fromhost>:
	...

Disassembly of section .sdata:

400029c8 <default_num_contexts>:
400029c8:	0001                	nop
	...

400029cc <seed4_volatile>:
400029cc:	07d0                	addi	a2,sp,964
	...

400029d0 <seed3_volatile>:
400029d0:	0066                	c.slli	zero,0x19
	...

400029d4 <buf>:
400029d4:	0000                	unimp
400029d6:	4002                	0x4002

400029d8 <error_msg.1528>:
400029d8:	6148                	flw	fa0,4(a0)
400029da:	6174                	flw	fa3,68(a0)
400029dc:	0a21                	addi	s4,s4,8
	...

400029e0 <UART_WRITE>:
400029e0:	000c                	0xc
400029e2:	2000                	fld	fs0,0(s0)

400029e4 <UART_READ>:
400029e4:	0008                	0x8
400029e6:	2000                	fld	fs0,0(s0)

400029e8 <UART_STATUS>:
400029e8:	0004                	0x4
400029ea:	2000                	fld	fs0,0(s0)

400029ec <UART_CONTROL>:
400029ec:	0000                	unimp
400029ee:	2000                	fld	fs0,0(s0)

Disassembly of section .sbss:

400029f0 <stop_time_val>:
	...

400029f8 <start_time_val>:
	...

40002a00 <seed5_volatile>:
40002a00:	0000                	unimp
	...

40002a04 <seed2_volatile>:
40002a04:	0000                	unimp
	...

40002a08 <seed1_volatile>:
40002a08:	0000                	unimp
	...

Disassembly of section .bss:

40002a0c <static_memblk>:
	...

Disassembly of section .comment:

00000000 <_tbss_end>:
   0:	3a434347          	fmsub.d	ft6,ft6,ft4,ft7,rmm
   4:	2820                	fld	fs0,80(s0)
   6:	29554e47          	fmsub.s	ft8,fa0,fs5,ft5,rmm
   a:	3920                	fld	fs0,112(a0)
   c:	322e                	fld	ft4,232(sp)
   e:	302e                	fld	ft0,232(sp)
	...

Disassembly of section .riscv.attributes:

00000000 <.riscv.attributes>:
   0:	2541                	jal	680 <_tbss_end+0x680>
   2:	0000                	unimp
   4:	7200                	flw	fs0,32(a2)
   6:	7369                	lui	t1,0xffffa
   8:	01007663          	bgeu	zero,a6,14 <_tbss_end+0x14>
   c:	0000001b          	0x1b
  10:	1004                	addi	s1,sp,32
  12:	7205                	lui	tp,0xfffe1
  14:	3376                	fld	ft6,376(sp)
  16:	6932                	flw	fs2,12(sp)
  18:	7032                	flw	ft0,44(sp)
  1a:	5f30                	lw	a2,120(a4)
  1c:	326d                	jal	fffff9c6 <_end+0xbfffc7ea>
  1e:	3070                	fld	fa2,224(s0)
  20:	635f 7032 0030      	0x307032635f
