
memtest.riscv:     file format elf32-littleriscv


Disassembly of section .text.init:

40000000 <_start>:
40000000:	4081                	li	ra,0
40000002:	4101                	li	sp,0
40000004:	4181                	li	gp,0
40000006:	4201                	li	tp,0
40000008:	4281                	li	t0,0
4000000a:	4301                	li	t1,0
4000000c:	4381                	li	t2,0
4000000e:	4401                	li	s0,0
40000010:	4481                	li	s1,0
40000012:	4501                	li	a0,0
40000014:	4581                	li	a1,0
40000016:	4601                	li	a2,0
40000018:	4681                	li	a3,0
4000001a:	4701                	li	a4,0
4000001c:	4781                	li	a5,0
4000001e:	4801                	li	a6,0
40000020:	4881                	li	a7,0
40000022:	4901                	li	s2,0
40000024:	4981                	li	s3,0
40000026:	4a01                	li	s4,0
40000028:	4a81                	li	s5,0
4000002a:	4b01                	li	s6,0
4000002c:	4b81                	li	s7,0
4000002e:	4c01                	li	s8,0
40000030:	4c81                	li	s9,0
40000032:	4d01                	li	s10,0
40000034:	4d81                	li	s11,0
40000036:	4e01                	li	t3,0
40000038:	4e81                	li	t4,0
4000003a:	4f01                	li	t5,0
4000003c:	4f81                	li	t6,0
4000003e:	62f9                	lui	t0,0x1e
40000040:	3002a073          	csrs	mstatus,t0
40000044:	4285                	li	t0,1
40000046:	02fe                	slli	t0,t0,0x1f
40000048:	0002c863          	bltz	t0,40000058 <_start+0x58>
4000004c:	4505                	li	a0,1
4000004e:	00001297          	auipc	t0,0x1
40000052:	46a2a923          	sw	a0,1138(t0) # 400014c0 <tohost>
40000056:	bfdd                	j	4000004c <_start+0x4c>
40000058:	00000297          	auipc	t0,0x0
4000005c:	03c28293          	addi	t0,t0,60 # 40000094 <trap_entry>
40000060:	30529073          	csrw	mtvec,t0
40000064:	00002197          	auipc	gp,0x2
40000068:	ca418193          	addi	gp,gp,-860 # 40001d08 <__global_pointer$>
4000006c:	00041217          	auipc	tp,0x41
40000070:	50320213          	addi	tp,tp,1283 # 4004156f <_end+0x3f>
40000074:	fc027213          	andi	tp,tp,-64
40000078:	f1402573          	csrr	a0,mhartid
4000007c:	4585                	li	a1,1
4000007e:	00b57063          	bgeu	a0,a1,4000007e <_start+0x7e>
40000082:	00e51613          	slli	a2,a0,0xe
40000086:	9232                	add	tp,tp,a2
40000088:	00150113          	addi	sp,a0,1
4000008c:	013a                	slli	sp,sp,0xe
4000008e:	9112                	add	sp,sp,tp
40000090:	0b20106f          	j	40001142 <main>

40000094 <trap_entry>:
40000094:	716d                	addi	sp,sp,-272
40000096:	c206                	sw	ra,4(sp)
40000098:	c40a                	sw	sp,8(sp)
4000009a:	c60e                	sw	gp,12(sp)
4000009c:	c812                	sw	tp,16(sp)
4000009e:	ca16                	sw	t0,20(sp)
400000a0:	cc1a                	sw	t1,24(sp)
400000a2:	ce1e                	sw	t2,28(sp)
400000a4:	d022                	sw	s0,32(sp)
400000a6:	d226                	sw	s1,36(sp)
400000a8:	d42a                	sw	a0,40(sp)
400000aa:	d62e                	sw	a1,44(sp)
400000ac:	d832                	sw	a2,48(sp)
400000ae:	da36                	sw	a3,52(sp)
400000b0:	dc3a                	sw	a4,56(sp)
400000b2:	de3e                	sw	a5,60(sp)
400000b4:	c0c2                	sw	a6,64(sp)
400000b6:	c2c6                	sw	a7,68(sp)
400000b8:	c4ca                	sw	s2,72(sp)
400000ba:	c6ce                	sw	s3,76(sp)
400000bc:	c8d2                	sw	s4,80(sp)
400000be:	cad6                	sw	s5,84(sp)
400000c0:	ccda                	sw	s6,88(sp)
400000c2:	cede                	sw	s7,92(sp)
400000c4:	d0e2                	sw	s8,96(sp)
400000c6:	d2e6                	sw	s9,100(sp)
400000c8:	d4ea                	sw	s10,104(sp)
400000ca:	d6ee                	sw	s11,108(sp)
400000cc:	d8f2                	sw	t3,112(sp)
400000ce:	daf6                	sw	t4,116(sp)
400000d0:	dcfa                	sw	t5,120(sp)
400000d2:	defe                	sw	t6,124(sp)
400000d4:	34202573          	csrr	a0,mcause
400000d8:	341025f3          	csrr	a1,mepc
400000dc:	860a                	mv	a2,sp
400000de:	058000ef          	jal	ra,40000136 <handle_trap>
400000e2:	34151073          	csrw	mepc,a0
400000e6:	000022b7          	lui	t0,0x2
400000ea:	80028293          	addi	t0,t0,-2048 # 1800 <_tbss_end+0x1800>
400000ee:	3002a073          	csrs	mstatus,t0
400000f2:	4092                	lw	ra,4(sp)
400000f4:	4122                	lw	sp,8(sp)
400000f6:	41b2                	lw	gp,12(sp)
400000f8:	4242                	lw	tp,16(sp)
400000fa:	42d2                	lw	t0,20(sp)
400000fc:	4362                	lw	t1,24(sp)
400000fe:	43f2                	lw	t2,28(sp)
40000100:	5402                	lw	s0,32(sp)
40000102:	5492                	lw	s1,36(sp)
40000104:	5522                	lw	a0,40(sp)
40000106:	55b2                	lw	a1,44(sp)
40000108:	5642                	lw	a2,48(sp)
4000010a:	56d2                	lw	a3,52(sp)
4000010c:	5762                	lw	a4,56(sp)
4000010e:	57f2                	lw	a5,60(sp)
40000110:	4806                	lw	a6,64(sp)
40000112:	4896                	lw	a7,68(sp)
40000114:	4926                	lw	s2,72(sp)
40000116:	49b6                	lw	s3,76(sp)
40000118:	4a46                	lw	s4,80(sp)
4000011a:	4ad6                	lw	s5,84(sp)
4000011c:	4b66                	lw	s6,88(sp)
4000011e:	4bf6                	lw	s7,92(sp)
40000120:	5c06                	lw	s8,96(sp)
40000122:	5c96                	lw	s9,100(sp)
40000124:	5d26                	lw	s10,104(sp)
40000126:	5db6                	lw	s11,108(sp)
40000128:	5e46                	lw	t3,112(sp)
4000012a:	5ed6                	lw	t4,116(sp)
4000012c:	5f66                	lw	t5,120(sp)
4000012e:	5ff6                	lw	t6,124(sp)
40000130:	6151                	addi	sp,sp,272
40000132:	30200073          	mret

Disassembly of section .text:

40000136 <handle_trap>:
40000136:	1141                	addi	sp,sp,-16
40000138:	c606                	sw	ra,12(sp)
4000013a:	c422                	sw	s0,8(sp)
4000013c:	0800                	addi	s0,sp,16
4000013e:	81818513          	addi	a0,gp,-2024 # 40001520 <error_msg.1560>
40000142:	2ab1                	jal	4000029e <uart_print>
40000144:	0001                	nop
40000146:	40b2                	lw	ra,12(sp)
40000148:	4422                	lw	s0,8(sp)
4000014a:	0141                	addi	sp,sp,16
4000014c:	8082                	ret

4000014e <uart_set_ctrl>:
4000014e:	7179                	addi	sp,sp,-48
40000150:	d622                	sw	s0,44(sp)
40000152:	1800                	addi	s0,sp,48
40000154:	87aa                	mv	a5,a0
40000156:	86ae                	mv	a3,a1
40000158:	8732                	mv	a4,a2
4000015a:	fcf41f23          	sh	a5,-34(s0)
4000015e:	87b6                	mv	a5,a3
40000160:	fcf40ea3          	sb	a5,-35(s0)
40000164:	87ba                	mv	a5,a4
40000166:	fcf40e23          	sb	a5,-36(s0)
4000016a:	fde45783          	lhu	a5,-34(s0)
4000016e:	01079713          	slli	a4,a5,0x10
40000172:	fdd44783          	lbu	a5,-35(s0)
40000176:	0786                	slli	a5,a5,0x1
40000178:	8f5d                	or	a4,a4,a5
4000017a:	fdc44783          	lbu	a5,-36(s0)
4000017e:	8fd9                	or	a5,a5,a4
40000180:	fef42623          	sw	a5,-20(s0)
40000184:	00001797          	auipc	a5,0x1
40000188:	38478793          	addi	a5,a5,900 # 40001508 <UART_CONTROL>
4000018c:	439c                	lw	a5,0(a5)
4000018e:	fec42703          	lw	a4,-20(s0)
40000192:	c398                	sw	a4,0(a5)
40000194:	0001                	nop
40000196:	5432                	lw	s0,44(sp)
40000198:	6145                	addi	sp,sp,48
4000019a:	8082                	ret

4000019c <uart_tx_full>:
4000019c:	1101                	addi	sp,sp,-32
4000019e:	ce22                	sw	s0,28(sp)
400001a0:	1000                	addi	s0,sp,32
400001a2:	00001797          	auipc	a5,0x1
400001a6:	36a78793          	addi	a5,a5,874 # 4000150c <UART_STATUS>
400001aa:	439c                	lw	a5,0(a5)
400001ac:	439c                	lw	a5,0(a5)
400001ae:	fef42623          	sw	a5,-20(s0)
400001b2:	fec42783          	lw	a5,-20(s0)
400001b6:	8b85                	andi	a5,a5,1
400001b8:	00f037b3          	snez	a5,a5
400001bc:	0ff7f793          	andi	a5,a5,255
400001c0:	853e                	mv	a0,a5
400001c2:	4472                	lw	s0,28(sp)
400001c4:	6105                	addi	sp,sp,32
400001c6:	8082                	ret

400001c8 <uart_rx_full>:
400001c8:	1101                	addi	sp,sp,-32
400001ca:	ce22                	sw	s0,28(sp)
400001cc:	1000                	addi	s0,sp,32
400001ce:	00001797          	auipc	a5,0x1
400001d2:	33e78793          	addi	a5,a5,830 # 4000150c <UART_STATUS>
400001d6:	439c                	lw	a5,0(a5)
400001d8:	439c                	lw	a5,0(a5)
400001da:	fef42623          	sw	a5,-20(s0)
400001de:	fec42783          	lw	a5,-20(s0)
400001e2:	8b91                	andi	a5,a5,4
400001e4:	00f037b3          	snez	a5,a5
400001e8:	0ff7f793          	andi	a5,a5,255
400001ec:	853e                	mv	a0,a5
400001ee:	4472                	lw	s0,28(sp)
400001f0:	6105                	addi	sp,sp,32
400001f2:	8082                	ret

400001f4 <uart_tx_empty>:
400001f4:	1101                	addi	sp,sp,-32
400001f6:	ce22                	sw	s0,28(sp)
400001f8:	1000                	addi	s0,sp,32
400001fa:	00001797          	auipc	a5,0x1
400001fe:	31278793          	addi	a5,a5,786 # 4000150c <UART_STATUS>
40000202:	439c                	lw	a5,0(a5)
40000204:	439c                	lw	a5,0(a5)
40000206:	fef42623          	sw	a5,-20(s0)
4000020a:	fec42783          	lw	a5,-20(s0)
4000020e:	8b89                	andi	a5,a5,2
40000210:	00f037b3          	snez	a5,a5
40000214:	0ff7f793          	andi	a5,a5,255
40000218:	853e                	mv	a0,a5
4000021a:	4472                	lw	s0,28(sp)
4000021c:	6105                	addi	sp,sp,32
4000021e:	8082                	ret

40000220 <uart_rx_empty>:
40000220:	1101                	addi	sp,sp,-32
40000222:	ce22                	sw	s0,28(sp)
40000224:	1000                	addi	s0,sp,32
40000226:	00001797          	auipc	a5,0x1
4000022a:	2e678793          	addi	a5,a5,742 # 4000150c <UART_STATUS>
4000022e:	439c                	lw	a5,0(a5)
40000230:	439c                	lw	a5,0(a5)
40000232:	fef42623          	sw	a5,-20(s0)
40000236:	fec42783          	lw	a5,-20(s0)
4000023a:	8ba1                	andi	a5,a5,8
4000023c:	00f037b3          	snez	a5,a5
40000240:	0ff7f793          	andi	a5,a5,255
40000244:	853e                	mv	a0,a5
40000246:	4472                	lw	s0,28(sp)
40000248:	6105                	addi	sp,sp,32
4000024a:	8082                	ret

4000024c <uart_write>:
4000024c:	1101                	addi	sp,sp,-32
4000024e:	ce06                	sw	ra,28(sp)
40000250:	cc22                	sw	s0,24(sp)
40000252:	1000                	addi	s0,sp,32
40000254:	87aa                	mv	a5,a0
40000256:	fef407a3          	sb	a5,-17(s0)
4000025a:	0001                	nop
4000025c:	3781                	jal	4000019c <uart_tx_full>
4000025e:	87aa                	mv	a5,a0
40000260:	fff5                	bnez	a5,4000025c <uart_write+0x10>
40000262:	80c18793          	addi	a5,gp,-2036 # 40001514 <UART_WRITE>
40000266:	439c                	lw	a5,0(a5)
40000268:	fef44703          	lbu	a4,-17(s0)
4000026c:	c398                	sw	a4,0(a5)
4000026e:	0001                	nop
40000270:	40f2                	lw	ra,28(sp)
40000272:	4462                	lw	s0,24(sp)
40000274:	6105                	addi	sp,sp,32
40000276:	8082                	ret

40000278 <uart_read>:
40000278:	1141                	addi	sp,sp,-16
4000027a:	c606                	sw	ra,12(sp)
4000027c:	c422                	sw	s0,8(sp)
4000027e:	0800                	addi	s0,sp,16
40000280:	0001                	nop
40000282:	3f79                	jal	40000220 <uart_rx_empty>
40000284:	87aa                	mv	a5,a0
40000286:	fff5                	bnez	a5,40000282 <uart_read+0xa>
40000288:	80818793          	addi	a5,gp,-2040 # 40001510 <UART_READ>
4000028c:	439c                	lw	a5,0(a5)
4000028e:	439c                	lw	a5,0(a5)
40000290:	0ff7f793          	andi	a5,a5,255
40000294:	853e                	mv	a0,a5
40000296:	40b2                	lw	ra,12(sp)
40000298:	4422                	lw	s0,8(sp)
4000029a:	0141                	addi	sp,sp,16
4000029c:	8082                	ret

4000029e <uart_print>:
4000029e:	7179                	addi	sp,sp,-48
400002a0:	d606                	sw	ra,44(sp)
400002a2:	d422                	sw	s0,40(sp)
400002a4:	1800                	addi	s0,sp,48
400002a6:	fca42e23          	sw	a0,-36(s0)
400002aa:	fe042623          	sw	zero,-20(s0)
400002ae:	a839                	j	400002cc <uart_print+0x2e>
400002b0:	fec42783          	lw	a5,-20(s0)
400002b4:	fdc42703          	lw	a4,-36(s0)
400002b8:	97ba                	add	a5,a5,a4
400002ba:	0007c783          	lbu	a5,0(a5)
400002be:	853e                	mv	a0,a5
400002c0:	3771                	jal	4000024c <uart_write>
400002c2:	fec42783          	lw	a5,-20(s0)
400002c6:	0785                	addi	a5,a5,1
400002c8:	fef42623          	sw	a5,-20(s0)
400002cc:	fec42783          	lw	a5,-20(s0)
400002d0:	fdc42703          	lw	a4,-36(s0)
400002d4:	97ba                	add	a5,a5,a4
400002d6:	0007c783          	lbu	a5,0(a5)
400002da:	fbf9                	bnez	a5,400002b0 <uart_print+0x12>
400002dc:	0001                	nop
400002de:	0001                	nop
400002e0:	50b2                	lw	ra,44(sp)
400002e2:	5422                	lw	s0,40(sp)
400002e4:	6145                	addi	sp,sp,48
400002e6:	8082                	ret

400002e8 <strnlen>:
400002e8:	7179                	addi	sp,sp,-48
400002ea:	d622                	sw	s0,44(sp)
400002ec:	1800                	addi	s0,sp,48
400002ee:	fca42e23          	sw	a0,-36(s0)
400002f2:	fcb42c23          	sw	a1,-40(s0)
400002f6:	fdc42783          	lw	a5,-36(s0)
400002fa:	fef42623          	sw	a5,-20(s0)
400002fe:	a031                	j	4000030a <strnlen+0x22>
40000300:	fec42783          	lw	a5,-20(s0)
40000304:	0785                	addi	a5,a5,1
40000306:	fef42623          	sw	a5,-20(s0)
4000030a:	fec42783          	lw	a5,-20(s0)
4000030e:	0007c783          	lbu	a5,0(a5)
40000312:	cb81                	beqz	a5,40000322 <strnlen+0x3a>
40000314:	fd842783          	lw	a5,-40(s0)
40000318:	fff78713          	addi	a4,a5,-1
4000031c:	fce42c23          	sw	a4,-40(s0)
40000320:	f3e5                	bnez	a5,40000300 <strnlen+0x18>
40000322:	fec42703          	lw	a4,-20(s0)
40000326:	fdc42783          	lw	a5,-36(s0)
4000032a:	40f707b3          	sub	a5,a4,a5
4000032e:	853e                	mv	a0,a5
40000330:	5432                	lw	s0,44(sp)
40000332:	6145                	addi	sp,sp,48
40000334:	8082                	ret

40000336 <skip_atoi>:
40000336:	7179                	addi	sp,sp,-48
40000338:	d622                	sw	s0,44(sp)
4000033a:	1800                	addi	s0,sp,48
4000033c:	fca42e23          	sw	a0,-36(s0)
40000340:	fe042623          	sw	zero,-20(s0)
40000344:	a03d                	j	40000372 <skip_atoi+0x3c>
40000346:	fec42703          	lw	a4,-20(s0)
4000034a:	87ba                	mv	a5,a4
4000034c:	078a                	slli	a5,a5,0x2
4000034e:	97ba                	add	a5,a5,a4
40000350:	0786                	slli	a5,a5,0x1
40000352:	863e                	mv	a2,a5
40000354:	fdc42783          	lw	a5,-36(s0)
40000358:	439c                	lw	a5,0(a5)
4000035a:	00178693          	addi	a3,a5,1
4000035e:	fdc42703          	lw	a4,-36(s0)
40000362:	c314                	sw	a3,0(a4)
40000364:	0007c783          	lbu	a5,0(a5)
40000368:	97b2                	add	a5,a5,a2
4000036a:	fd078793          	addi	a5,a5,-48
4000036e:	fef42623          	sw	a5,-20(s0)
40000372:	fdc42783          	lw	a5,-36(s0)
40000376:	439c                	lw	a5,0(a5)
40000378:	0007c703          	lbu	a4,0(a5)
4000037c:	02f00793          	li	a5,47
40000380:	00e7fb63          	bgeu	a5,a4,40000396 <skip_atoi+0x60>
40000384:	fdc42783          	lw	a5,-36(s0)
40000388:	439c                	lw	a5,0(a5)
4000038a:	0007c703          	lbu	a4,0(a5)
4000038e:	03900793          	li	a5,57
40000392:	fae7fae3          	bgeu	a5,a4,40000346 <skip_atoi+0x10>
40000396:	fec42783          	lw	a5,-20(s0)
4000039a:	853e                	mv	a0,a5
4000039c:	5432                	lw	s0,44(sp)
4000039e:	6145                	addi	sp,sp,48
400003a0:	8082                	ret

400003a2 <number>:
400003a2:	7119                	addi	sp,sp,-128
400003a4:	dea2                	sw	s0,124(sp)
400003a6:	0100                	addi	s0,sp,128
400003a8:	f8a42e23          	sw	a0,-100(s0)
400003ac:	f8b42c23          	sw	a1,-104(s0)
400003b0:	f8c42a23          	sw	a2,-108(s0)
400003b4:	f8d42823          	sw	a3,-112(s0)
400003b8:	f8e42623          	sw	a4,-116(s0)
400003bc:	f8f42423          	sw	a5,-120(s0)
400003c0:	81018793          	addi	a5,gp,-2032 # 40001518 <digits>
400003c4:	439c                	lw	a5,0(a5)
400003c6:	fef42423          	sw	a5,-24(s0)
400003ca:	f8842783          	lw	a5,-120(s0)
400003ce:	0407f793          	andi	a5,a5,64
400003d2:	c791                	beqz	a5,400003de <number+0x3c>
400003d4:	81418793          	addi	a5,gp,-2028 # 4000151c <upper_digits>
400003d8:	439c                	lw	a5,0(a5)
400003da:	fef42423          	sw	a5,-24(s0)
400003de:	f8842783          	lw	a5,-120(s0)
400003e2:	8bc1                	andi	a5,a5,16
400003e4:	c791                	beqz	a5,400003f0 <number+0x4e>
400003e6:	f8842783          	lw	a5,-120(s0)
400003ea:	9bf9                	andi	a5,a5,-2
400003ec:	f8f42423          	sw	a5,-120(s0)
400003f0:	f9442703          	lw	a4,-108(s0)
400003f4:	4785                	li	a5,1
400003f6:	00e7d863          	bge	a5,a4,40000406 <number+0x64>
400003fa:	f9442703          	lw	a4,-108(s0)
400003fe:	02400793          	li	a5,36
40000402:	00e7d463          	bge	a5,a4,4000040a <number+0x68>
40000406:	4781                	li	a5,0
40000408:	ac79                	j	400006a6 <number+0x304>
4000040a:	f8842783          	lw	a5,-120(s0)
4000040e:	8b85                	andi	a5,a5,1
40000410:	c781                	beqz	a5,40000418 <number+0x76>
40000412:	03000793          	li	a5,48
40000416:	a019                	j	4000041c <number+0x7a>
40000418:	02000793          	li	a5,32
4000041c:	fef401a3          	sb	a5,-29(s0)
40000420:	fe0407a3          	sb	zero,-17(s0)
40000424:	f8842783          	lw	a5,-120(s0)
40000428:	8b89                	andi	a5,a5,2
4000042a:	c3a5                	beqz	a5,4000048a <number+0xe8>
4000042c:	f9842783          	lw	a5,-104(s0)
40000430:	0207d263          	bgez	a5,40000454 <number+0xb2>
40000434:	02d00793          	li	a5,45
40000438:	fef407a3          	sb	a5,-17(s0)
4000043c:	f9842783          	lw	a5,-104(s0)
40000440:	40f007b3          	neg	a5,a5
40000444:	f8f42c23          	sw	a5,-104(s0)
40000448:	f9042783          	lw	a5,-112(s0)
4000044c:	17fd                	addi	a5,a5,-1
4000044e:	f8f42823          	sw	a5,-112(s0)
40000452:	a825                	j	4000048a <number+0xe8>
40000454:	f8842783          	lw	a5,-120(s0)
40000458:	8b91                	andi	a5,a5,4
4000045a:	cb99                	beqz	a5,40000470 <number+0xce>
4000045c:	02b00793          	li	a5,43
40000460:	fef407a3          	sb	a5,-17(s0)
40000464:	f9042783          	lw	a5,-112(s0)
40000468:	17fd                	addi	a5,a5,-1
4000046a:	f8f42823          	sw	a5,-112(s0)
4000046e:	a831                	j	4000048a <number+0xe8>
40000470:	f8842783          	lw	a5,-120(s0)
40000474:	8ba1                	andi	a5,a5,8
40000476:	cb91                	beqz	a5,4000048a <number+0xe8>
40000478:	02000793          	li	a5,32
4000047c:	fef407a3          	sb	a5,-17(s0)
40000480:	f9042783          	lw	a5,-112(s0)
40000484:	17fd                	addi	a5,a5,-1
40000486:	f8f42823          	sw	a5,-112(s0)
4000048a:	f8842783          	lw	a5,-120(s0)
4000048e:	0207f793          	andi	a5,a5,32
40000492:	c795                	beqz	a5,400004be <number+0x11c>
40000494:	f9442703          	lw	a4,-108(s0)
40000498:	47c1                	li	a5,16
4000049a:	00f71863          	bne	a4,a5,400004aa <number+0x108>
4000049e:	f9042783          	lw	a5,-112(s0)
400004a2:	17f9                	addi	a5,a5,-2
400004a4:	f8f42823          	sw	a5,-112(s0)
400004a8:	a819                	j	400004be <number+0x11c>
400004aa:	f9442703          	lw	a4,-108(s0)
400004ae:	47a1                	li	a5,8
400004b0:	00f71763          	bne	a4,a5,400004be <number+0x11c>
400004b4:	f9042783          	lw	a5,-112(s0)
400004b8:	17fd                	addi	a5,a5,-1
400004ba:	f8f42823          	sw	a5,-112(s0)
400004be:	fe042223          	sw	zero,-28(s0)
400004c2:	f9842783          	lw	a5,-104(s0)
400004c6:	efa9                	bnez	a5,40000520 <number+0x17e>
400004c8:	fe442783          	lw	a5,-28(s0)
400004cc:	00178713          	addi	a4,a5,1
400004d0:	fee42223          	sw	a4,-28(s0)
400004d4:	ff040713          	addi	a4,s0,-16
400004d8:	97ba                	add	a5,a5,a4
400004da:	03000713          	li	a4,48
400004de:	fae78823          	sb	a4,-80(a5)
400004e2:	a091                	j	40000526 <number+0x184>
400004e4:	f9842703          	lw	a4,-104(s0)
400004e8:	f9442783          	lw	a5,-108(s0)
400004ec:	02f777b3          	remu	a5,a4,a5
400004f0:	fe842703          	lw	a4,-24(s0)
400004f4:	973e                	add	a4,a4,a5
400004f6:	fe442783          	lw	a5,-28(s0)
400004fa:	00178693          	addi	a3,a5,1
400004fe:	fed42223          	sw	a3,-28(s0)
40000502:	00074703          	lbu	a4,0(a4)
40000506:	ff040693          	addi	a3,s0,-16
4000050a:	97b6                	add	a5,a5,a3
4000050c:	fae78823          	sb	a4,-80(a5)
40000510:	f9842703          	lw	a4,-104(s0)
40000514:	f9442783          	lw	a5,-108(s0)
40000518:	02f757b3          	divu	a5,a4,a5
4000051c:	f8f42c23          	sw	a5,-104(s0)
40000520:	f9842783          	lw	a5,-104(s0)
40000524:	f3e1                	bnez	a5,400004e4 <number+0x142>
40000526:	fe442703          	lw	a4,-28(s0)
4000052a:	f8c42783          	lw	a5,-116(s0)
4000052e:	00e7d663          	bge	a5,a4,4000053a <number+0x198>
40000532:	fe442783          	lw	a5,-28(s0)
40000536:	f8f42623          	sw	a5,-116(s0)
4000053a:	f9042703          	lw	a4,-112(s0)
4000053e:	f8c42783          	lw	a5,-116(s0)
40000542:	40f707b3          	sub	a5,a4,a5
40000546:	f8f42823          	sw	a5,-112(s0)
4000054a:	f8842783          	lw	a5,-120(s0)
4000054e:	8bc5                	andi	a5,a5,17
40000550:	e785                	bnez	a5,40000578 <number+0x1d6>
40000552:	a819                	j	40000568 <number+0x1c6>
40000554:	f9c42783          	lw	a5,-100(s0)
40000558:	00178713          	addi	a4,a5,1
4000055c:	f8e42e23          	sw	a4,-100(s0)
40000560:	02000713          	li	a4,32
40000564:	00e78023          	sb	a4,0(a5)
40000568:	f9042783          	lw	a5,-112(s0)
4000056c:	fff78713          	addi	a4,a5,-1
40000570:	f8e42823          	sw	a4,-112(s0)
40000574:	fef040e3          	bgtz	a5,40000554 <number+0x1b2>
40000578:	fef44783          	lbu	a5,-17(s0)
4000057c:	cb99                	beqz	a5,40000592 <number+0x1f0>
4000057e:	f9c42783          	lw	a5,-100(s0)
40000582:	00178713          	addi	a4,a5,1
40000586:	f8e42e23          	sw	a4,-100(s0)
4000058a:	fef44703          	lbu	a4,-17(s0)
4000058e:	00e78023          	sb	a4,0(a5)
40000592:	f8842783          	lw	a5,-120(s0)
40000596:	0207f793          	andi	a5,a5,32
4000059a:	cfa9                	beqz	a5,400005f4 <number+0x252>
4000059c:	f9442703          	lw	a4,-108(s0)
400005a0:	47a1                	li	a5,8
400005a2:	00f71d63          	bne	a4,a5,400005bc <number+0x21a>
400005a6:	f9c42783          	lw	a5,-100(s0)
400005aa:	00178713          	addi	a4,a5,1
400005ae:	f8e42e23          	sw	a4,-100(s0)
400005b2:	03000713          	li	a4,48
400005b6:	00e78023          	sb	a4,0(a5)
400005ba:	a82d                	j	400005f4 <number+0x252>
400005bc:	f9442703          	lw	a4,-108(s0)
400005c0:	47c1                	li	a5,16
400005c2:	02f71963          	bne	a4,a5,400005f4 <number+0x252>
400005c6:	f9c42783          	lw	a5,-100(s0)
400005ca:	00178713          	addi	a4,a5,1
400005ce:	f8e42e23          	sw	a4,-100(s0)
400005d2:	03000713          	li	a4,48
400005d6:	00e78023          	sb	a4,0(a5)
400005da:	81018793          	addi	a5,gp,-2032 # 40001518 <digits>
400005de:	4398                	lw	a4,0(a5)
400005e0:	f9c42783          	lw	a5,-100(s0)
400005e4:	00178693          	addi	a3,a5,1
400005e8:	f8d42e23          	sw	a3,-100(s0)
400005ec:	02174703          	lbu	a4,33(a4)
400005f0:	00e78023          	sb	a4,0(a5)
400005f4:	f8842783          	lw	a5,-120(s0)
400005f8:	8bc1                	andi	a5,a5,16
400005fa:	ef9d                	bnez	a5,40000638 <number+0x296>
400005fc:	a819                	j	40000612 <number+0x270>
400005fe:	f9c42783          	lw	a5,-100(s0)
40000602:	00178713          	addi	a4,a5,1
40000606:	f8e42e23          	sw	a4,-100(s0)
4000060a:	fe344703          	lbu	a4,-29(s0)
4000060e:	00e78023          	sb	a4,0(a5)
40000612:	f9042783          	lw	a5,-112(s0)
40000616:	fff78713          	addi	a4,a5,-1
4000061a:	f8e42823          	sw	a4,-112(s0)
4000061e:	fef040e3          	bgtz	a5,400005fe <number+0x25c>
40000622:	a819                	j	40000638 <number+0x296>
40000624:	f9c42783          	lw	a5,-100(s0)
40000628:	00178713          	addi	a4,a5,1
4000062c:	f8e42e23          	sw	a4,-100(s0)
40000630:	03000713          	li	a4,48
40000634:	00e78023          	sb	a4,0(a5)
40000638:	f8c42783          	lw	a5,-116(s0)
4000063c:	fff78713          	addi	a4,a5,-1
40000640:	f8e42623          	sw	a4,-116(s0)
40000644:	fe442703          	lw	a4,-28(s0)
40000648:	fcf74ee3          	blt	a4,a5,40000624 <number+0x282>
4000064c:	a005                	j	4000066c <number+0x2ca>
4000064e:	f9c42783          	lw	a5,-100(s0)
40000652:	00178713          	addi	a4,a5,1
40000656:	f8e42e23          	sw	a4,-100(s0)
4000065a:	fe442703          	lw	a4,-28(s0)
4000065e:	ff040693          	addi	a3,s0,-16
40000662:	9736                	add	a4,a4,a3
40000664:	fb074703          	lbu	a4,-80(a4)
40000668:	00e78023          	sb	a4,0(a5)
4000066c:	fe442783          	lw	a5,-28(s0)
40000670:	fff78713          	addi	a4,a5,-1
40000674:	fee42223          	sw	a4,-28(s0)
40000678:	fcf04be3          	bgtz	a5,4000064e <number+0x2ac>
4000067c:	a819                	j	40000692 <number+0x2f0>
4000067e:	f9c42783          	lw	a5,-100(s0)
40000682:	00178713          	addi	a4,a5,1
40000686:	f8e42e23          	sw	a4,-100(s0)
4000068a:	02000713          	li	a4,32
4000068e:	00e78023          	sb	a4,0(a5)
40000692:	f9042783          	lw	a5,-112(s0)
40000696:	fff78713          	addi	a4,a5,-1
4000069a:	f8e42823          	sw	a4,-112(s0)
4000069e:	fef040e3          	bgtz	a5,4000067e <number+0x2dc>
400006a2:	f9c42783          	lw	a5,-100(s0)
400006a6:	853e                	mv	a0,a5
400006a8:	5476                	lw	s0,124(sp)
400006aa:	6109                	addi	sp,sp,128
400006ac:	8082                	ret

400006ae <eaddr>:
400006ae:	711d                	addi	sp,sp,-96
400006b0:	cea2                	sw	s0,92(sp)
400006b2:	1080                	addi	s0,sp,96
400006b4:	faa42e23          	sw	a0,-68(s0)
400006b8:	fab42c23          	sw	a1,-72(s0)
400006bc:	fac42a23          	sw	a2,-76(s0)
400006c0:	fad42823          	sw	a3,-80(s0)
400006c4:	fae42623          	sw	a4,-84(s0)
400006c8:	81018793          	addi	a5,gp,-2032 # 40001518 <digits>
400006cc:	439c                	lw	a5,0(a5)
400006ce:	fef42623          	sw	a5,-20(s0)
400006d2:	fac42783          	lw	a5,-84(s0)
400006d6:	0407f793          	andi	a5,a5,64
400006da:	c791                	beqz	a5,400006e6 <eaddr+0x38>
400006dc:	81418793          	addi	a5,gp,-2028 # 4000151c <upper_digits>
400006e0:	439c                	lw	a5,0(a5)
400006e2:	fef42623          	sw	a5,-20(s0)
400006e6:	fe042223          	sw	zero,-28(s0)
400006ea:	fe042423          	sw	zero,-24(s0)
400006ee:	a849                	j	40000780 <eaddr+0xd2>
400006f0:	fe842783          	lw	a5,-24(s0)
400006f4:	cf91                	beqz	a5,40000710 <eaddr+0x62>
400006f6:	fe442783          	lw	a5,-28(s0)
400006fa:	00178713          	addi	a4,a5,1
400006fe:	fee42223          	sw	a4,-28(s0)
40000702:	ff040713          	addi	a4,s0,-16
40000706:	97ba                	add	a5,a5,a4
40000708:	03a00713          	li	a4,58
4000070c:	fce78e23          	sb	a4,-36(a5)
40000710:	fe842783          	lw	a5,-24(s0)
40000714:	fb842703          	lw	a4,-72(s0)
40000718:	97ba                	add	a5,a5,a4
4000071a:	0007c783          	lbu	a5,0(a5)
4000071e:	8391                	srli	a5,a5,0x4
40000720:	0ff7f793          	andi	a5,a5,255
40000724:	873e                	mv	a4,a5
40000726:	fec42783          	lw	a5,-20(s0)
4000072a:	973e                	add	a4,a4,a5
4000072c:	fe442783          	lw	a5,-28(s0)
40000730:	00178693          	addi	a3,a5,1
40000734:	fed42223          	sw	a3,-28(s0)
40000738:	00074703          	lbu	a4,0(a4)
4000073c:	ff040693          	addi	a3,s0,-16
40000740:	97b6                	add	a5,a5,a3
40000742:	fce78e23          	sb	a4,-36(a5)
40000746:	fe842783          	lw	a5,-24(s0)
4000074a:	fb842703          	lw	a4,-72(s0)
4000074e:	97ba                	add	a5,a5,a4
40000750:	0007c783          	lbu	a5,0(a5)
40000754:	8bbd                	andi	a5,a5,15
40000756:	fec42703          	lw	a4,-20(s0)
4000075a:	973e                	add	a4,a4,a5
4000075c:	fe442783          	lw	a5,-28(s0)
40000760:	00178693          	addi	a3,a5,1
40000764:	fed42223          	sw	a3,-28(s0)
40000768:	00074703          	lbu	a4,0(a4)
4000076c:	ff040693          	addi	a3,s0,-16
40000770:	97b6                	add	a5,a5,a3
40000772:	fce78e23          	sb	a4,-36(a5)
40000776:	fe842783          	lw	a5,-24(s0)
4000077a:	0785                	addi	a5,a5,1
4000077c:	fef42423          	sw	a5,-24(s0)
40000780:	fe842703          	lw	a4,-24(s0)
40000784:	4795                	li	a5,5
40000786:	f6e7d5e3          	bge	a5,a4,400006f0 <eaddr+0x42>
4000078a:	fac42783          	lw	a5,-84(s0)
4000078e:	8bc1                	andi	a5,a5,16
40000790:	e795                	bnez	a5,400007bc <eaddr+0x10e>
40000792:	a819                	j	400007a8 <eaddr+0xfa>
40000794:	fbc42783          	lw	a5,-68(s0)
40000798:	00178713          	addi	a4,a5,1
4000079c:	fae42e23          	sw	a4,-68(s0)
400007a0:	02000713          	li	a4,32
400007a4:	00e78023          	sb	a4,0(a5)
400007a8:	fb442783          	lw	a5,-76(s0)
400007ac:	fff78713          	addi	a4,a5,-1
400007b0:	fae42a23          	sw	a4,-76(s0)
400007b4:	fe442703          	lw	a4,-28(s0)
400007b8:	fcf74ee3          	blt	a4,a5,40000794 <eaddr+0xe6>
400007bc:	fe042423          	sw	zero,-24(s0)
400007c0:	a02d                	j	400007ea <eaddr+0x13c>
400007c2:	fbc42783          	lw	a5,-68(s0)
400007c6:	00178713          	addi	a4,a5,1
400007ca:	fae42e23          	sw	a4,-68(s0)
400007ce:	fe842703          	lw	a4,-24(s0)
400007d2:	ff040693          	addi	a3,s0,-16
400007d6:	9736                	add	a4,a4,a3
400007d8:	fdc74703          	lbu	a4,-36(a4)
400007dc:	00e78023          	sb	a4,0(a5)
400007e0:	fe842783          	lw	a5,-24(s0)
400007e4:	0785                	addi	a5,a5,1
400007e6:	fef42423          	sw	a5,-24(s0)
400007ea:	fe842703          	lw	a4,-24(s0)
400007ee:	fe442783          	lw	a5,-28(s0)
400007f2:	fcf748e3          	blt	a4,a5,400007c2 <eaddr+0x114>
400007f6:	a819                	j	4000080c <eaddr+0x15e>
400007f8:	fbc42783          	lw	a5,-68(s0)
400007fc:	00178713          	addi	a4,a5,1
40000800:	fae42e23          	sw	a4,-68(s0)
40000804:	02000713          	li	a4,32
40000808:	00e78023          	sb	a4,0(a5)
4000080c:	fb442783          	lw	a5,-76(s0)
40000810:	fff78713          	addi	a4,a5,-1
40000814:	fae42a23          	sw	a4,-76(s0)
40000818:	fe442703          	lw	a4,-28(s0)
4000081c:	fcf74ee3          	blt	a4,a5,400007f8 <eaddr+0x14a>
40000820:	fbc42783          	lw	a5,-68(s0)
40000824:	853e                	mv	a0,a5
40000826:	4476                	lw	s0,92(sp)
40000828:	6125                	addi	sp,sp,96
4000082a:	8082                	ret

4000082c <iaddr>:
4000082c:	711d                	addi	sp,sp,-96
4000082e:	cea2                	sw	s0,92(sp)
40000830:	1080                	addi	s0,sp,96
40000832:	faa42e23          	sw	a0,-68(s0)
40000836:	fab42c23          	sw	a1,-72(s0)
4000083a:	fac42a23          	sw	a2,-76(s0)
4000083e:	fad42823          	sw	a3,-80(s0)
40000842:	fae42623          	sw	a4,-84(s0)
40000846:	fe042223          	sw	zero,-28(s0)
4000084a:	fe042623          	sw	zero,-20(s0)
4000084e:	aa99                	j	400009a4 <iaddr+0x178>
40000850:	fec42783          	lw	a5,-20(s0)
40000854:	cf91                	beqz	a5,40000870 <iaddr+0x44>
40000856:	fe442783          	lw	a5,-28(s0)
4000085a:	00178713          	addi	a4,a5,1
4000085e:	fee42223          	sw	a4,-28(s0)
40000862:	ff040713          	addi	a4,s0,-16
40000866:	97ba                	add	a5,a5,a4
40000868:	02e00713          	li	a4,46
4000086c:	fce78e23          	sb	a4,-36(a5)
40000870:	fec42783          	lw	a5,-20(s0)
40000874:	fb842703          	lw	a4,-72(s0)
40000878:	97ba                	add	a5,a5,a4
4000087a:	0007c783          	lbu	a5,0(a5)
4000087e:	fef42423          	sw	a5,-24(s0)
40000882:	fe842783          	lw	a5,-24(s0)
40000886:	e395                	bnez	a5,400008aa <iaddr+0x7e>
40000888:	81018793          	addi	a5,gp,-2032 # 40001518 <digits>
4000088c:	4398                	lw	a4,0(a5)
4000088e:	fe442783          	lw	a5,-28(s0)
40000892:	00178693          	addi	a3,a5,1
40000896:	fed42223          	sw	a3,-28(s0)
4000089a:	00074703          	lbu	a4,0(a4)
4000089e:	ff040693          	addi	a3,s0,-16
400008a2:	97b6                	add	a5,a5,a3
400008a4:	fce78e23          	sb	a4,-36(a5)
400008a8:	a8cd                	j	4000099a <iaddr+0x16e>
400008aa:	fe842703          	lw	a4,-24(s0)
400008ae:	06300793          	li	a5,99
400008b2:	06e7df63          	bge	a5,a4,40000930 <iaddr+0x104>
400008b6:	81018793          	addi	a5,gp,-2032 # 40001518 <digits>
400008ba:	439c                	lw	a5,0(a5)
400008bc:	fe842683          	lw	a3,-24(s0)
400008c0:	06400713          	li	a4,100
400008c4:	02e6c733          	div	a4,a3,a4
400008c8:	973e                	add	a4,a4,a5
400008ca:	fe442783          	lw	a5,-28(s0)
400008ce:	00178693          	addi	a3,a5,1
400008d2:	fed42223          	sw	a3,-28(s0)
400008d6:	00074703          	lbu	a4,0(a4)
400008da:	ff040693          	addi	a3,s0,-16
400008de:	97b6                	add	a5,a5,a3
400008e0:	fce78e23          	sb	a4,-36(a5)
400008e4:	fe842703          	lw	a4,-24(s0)
400008e8:	06400793          	li	a5,100
400008ec:	02f767b3          	rem	a5,a4,a5
400008f0:	fef42423          	sw	a5,-24(s0)
400008f4:	81018793          	addi	a5,gp,-2032 # 40001518 <digits>
400008f8:	439c                	lw	a5,0(a5)
400008fa:	fe842683          	lw	a3,-24(s0)
400008fe:	4729                	li	a4,10
40000900:	02e6c733          	div	a4,a3,a4
40000904:	973e                	add	a4,a4,a5
40000906:	fe442783          	lw	a5,-28(s0)
4000090a:	00178693          	addi	a3,a5,1
4000090e:	fed42223          	sw	a3,-28(s0)
40000912:	00074703          	lbu	a4,0(a4)
40000916:	ff040693          	addi	a3,s0,-16
4000091a:	97b6                	add	a5,a5,a3
4000091c:	fce78e23          	sb	a4,-36(a5)
40000920:	fe842703          	lw	a4,-24(s0)
40000924:	47a9                	li	a5,10
40000926:	02f767b3          	rem	a5,a4,a5
4000092a:	fef42423          	sw	a5,-24(s0)
4000092e:	a099                	j	40000974 <iaddr+0x148>
40000930:	fe842703          	lw	a4,-24(s0)
40000934:	47a5                	li	a5,9
40000936:	02e7df63          	bge	a5,a4,40000974 <iaddr+0x148>
4000093a:	81018793          	addi	a5,gp,-2032 # 40001518 <digits>
4000093e:	439c                	lw	a5,0(a5)
40000940:	fe842683          	lw	a3,-24(s0)
40000944:	4729                	li	a4,10
40000946:	02e6c733          	div	a4,a3,a4
4000094a:	973e                	add	a4,a4,a5
4000094c:	fe442783          	lw	a5,-28(s0)
40000950:	00178693          	addi	a3,a5,1
40000954:	fed42223          	sw	a3,-28(s0)
40000958:	00074703          	lbu	a4,0(a4)
4000095c:	ff040693          	addi	a3,s0,-16
40000960:	97b6                	add	a5,a5,a3
40000962:	fce78e23          	sb	a4,-36(a5)
40000966:	fe842703          	lw	a4,-24(s0)
4000096a:	47a9                	li	a5,10
4000096c:	02f767b3          	rem	a5,a4,a5
40000970:	fef42423          	sw	a5,-24(s0)
40000974:	81018793          	addi	a5,gp,-2032 # 40001518 <digits>
40000978:	4398                	lw	a4,0(a5)
4000097a:	fe842783          	lw	a5,-24(s0)
4000097e:	973e                	add	a4,a4,a5
40000980:	fe442783          	lw	a5,-28(s0)
40000984:	00178693          	addi	a3,a5,1
40000988:	fed42223          	sw	a3,-28(s0)
4000098c:	00074703          	lbu	a4,0(a4)
40000990:	ff040693          	addi	a3,s0,-16
40000994:	97b6                	add	a5,a5,a3
40000996:	fce78e23          	sb	a4,-36(a5)
4000099a:	fec42783          	lw	a5,-20(s0)
4000099e:	0785                	addi	a5,a5,1
400009a0:	fef42623          	sw	a5,-20(s0)
400009a4:	fec42703          	lw	a4,-20(s0)
400009a8:	478d                	li	a5,3
400009aa:	eae7d3e3          	bge	a5,a4,40000850 <iaddr+0x24>
400009ae:	fac42783          	lw	a5,-84(s0)
400009b2:	8bc1                	andi	a5,a5,16
400009b4:	e795                	bnez	a5,400009e0 <iaddr+0x1b4>
400009b6:	a819                	j	400009cc <iaddr+0x1a0>
400009b8:	fbc42783          	lw	a5,-68(s0)
400009bc:	00178713          	addi	a4,a5,1
400009c0:	fae42e23          	sw	a4,-68(s0)
400009c4:	02000713          	li	a4,32
400009c8:	00e78023          	sb	a4,0(a5)
400009cc:	fb442783          	lw	a5,-76(s0)
400009d0:	fff78713          	addi	a4,a5,-1
400009d4:	fae42a23          	sw	a4,-76(s0)
400009d8:	fe442703          	lw	a4,-28(s0)
400009dc:	fcf74ee3          	blt	a4,a5,400009b8 <iaddr+0x18c>
400009e0:	fe042623          	sw	zero,-20(s0)
400009e4:	a02d                	j	40000a0e <iaddr+0x1e2>
400009e6:	fbc42783          	lw	a5,-68(s0)
400009ea:	00178713          	addi	a4,a5,1
400009ee:	fae42e23          	sw	a4,-68(s0)
400009f2:	fec42703          	lw	a4,-20(s0)
400009f6:	ff040693          	addi	a3,s0,-16
400009fa:	9736                	add	a4,a4,a3
400009fc:	fdc74703          	lbu	a4,-36(a4)
40000a00:	00e78023          	sb	a4,0(a5)
40000a04:	fec42783          	lw	a5,-20(s0)
40000a08:	0785                	addi	a5,a5,1
40000a0a:	fef42623          	sw	a5,-20(s0)
40000a0e:	fec42703          	lw	a4,-20(s0)
40000a12:	fe442783          	lw	a5,-28(s0)
40000a16:	fcf748e3          	blt	a4,a5,400009e6 <iaddr+0x1ba>
40000a1a:	a819                	j	40000a30 <iaddr+0x204>
40000a1c:	fbc42783          	lw	a5,-68(s0)
40000a20:	00178713          	addi	a4,a5,1
40000a24:	fae42e23          	sw	a4,-68(s0)
40000a28:	02000713          	li	a4,32
40000a2c:	00e78023          	sb	a4,0(a5)
40000a30:	fb442783          	lw	a5,-76(s0)
40000a34:	fff78713          	addi	a4,a5,-1
40000a38:	fae42a23          	sw	a4,-76(s0)
40000a3c:	fe442703          	lw	a4,-28(s0)
40000a40:	fcf74ee3          	blt	a4,a5,40000a1c <iaddr+0x1f0>
40000a44:	fbc42783          	lw	a5,-68(s0)
40000a48:	853e                	mv	a0,a5
40000a4a:	4476                	lw	s0,92(sp)
40000a4c:	6125                	addi	sp,sp,96
40000a4e:	8082                	ret

40000a50 <ee_vsprintf>:
40000a50:	715d                	addi	sp,sp,-80
40000a52:	c686                	sw	ra,76(sp)
40000a54:	c4a2                	sw	s0,72(sp)
40000a56:	0880                	addi	s0,sp,80
40000a58:	faa42e23          	sw	a0,-68(s0)
40000a5c:	fab42c23          	sw	a1,-72(s0)
40000a60:	fac42a23          	sw	a2,-76(s0)
40000a64:	fbc42783          	lw	a5,-68(s0)
40000a68:	fef42023          	sw	a5,-32(s0)
40000a6c:	ab39                	j	40000f8a <ee_vsprintf+0x53a>
40000a6e:	fb842783          	lw	a5,-72(s0)
40000a72:	0007c703          	lbu	a4,0(a5)
40000a76:	02500793          	li	a5,37
40000a7a:	00f70f63          	beq	a4,a5,40000a98 <ee_vsprintf+0x48>
40000a7e:	fb842703          	lw	a4,-72(s0)
40000a82:	fe042783          	lw	a5,-32(s0)
40000a86:	00178693          	addi	a3,a5,1
40000a8a:	fed42023          	sw	a3,-32(s0)
40000a8e:	00074703          	lbu	a4,0(a4)
40000a92:	00e78023          	sb	a4,0(a5)
40000a96:	a1ed                	j	40000f80 <ee_vsprintf+0x530>
40000a98:	fc042c23          	sw	zero,-40(s0)
40000a9c:	fb842783          	lw	a5,-72(s0)
40000aa0:	0785                	addi	a5,a5,1
40000aa2:	faf42c23          	sw	a5,-72(s0)
40000aa6:	fb842783          	lw	a5,-72(s0)
40000aaa:	0007c783          	lbu	a5,0(a5)
40000aae:	1781                	addi	a5,a5,-32
40000ab0:	4741                	li	a4,16
40000ab2:	06f76363          	bltu	a4,a5,40000b18 <ee_vsprintf+0xc8>
40000ab6:	00279713          	slli	a4,a5,0x2
40000aba:	00001797          	auipc	a5,0x1
40000abe:	89e78793          	addi	a5,a5,-1890 # 40001358 <main+0x216>
40000ac2:	97ba                	add	a5,a5,a4
40000ac4:	4398                	lw	a4,0(a5)
40000ac6:	00001797          	auipc	a5,0x1
40000aca:	89278793          	addi	a5,a5,-1902 # 40001358 <main+0x216>
40000ace:	97ba                	add	a5,a5,a4
40000ad0:	8782                	jr	a5
40000ad2:	fd842783          	lw	a5,-40(s0)
40000ad6:	0107e793          	ori	a5,a5,16
40000ada:	fcf42c23          	sw	a5,-40(s0)
40000ade:	bf7d                	j	40000a9c <ee_vsprintf+0x4c>
40000ae0:	fd842783          	lw	a5,-40(s0)
40000ae4:	0047e793          	ori	a5,a5,4
40000ae8:	fcf42c23          	sw	a5,-40(s0)
40000aec:	bf45                	j	40000a9c <ee_vsprintf+0x4c>
40000aee:	fd842783          	lw	a5,-40(s0)
40000af2:	0087e793          	ori	a5,a5,8
40000af6:	fcf42c23          	sw	a5,-40(s0)
40000afa:	b74d                	j	40000a9c <ee_vsprintf+0x4c>
40000afc:	fd842783          	lw	a5,-40(s0)
40000b00:	0207e793          	ori	a5,a5,32
40000b04:	fcf42c23          	sw	a5,-40(s0)
40000b08:	bf51                	j	40000a9c <ee_vsprintf+0x4c>
40000b0a:	fd842783          	lw	a5,-40(s0)
40000b0e:	0017e793          	ori	a5,a5,1
40000b12:	fcf42c23          	sw	a5,-40(s0)
40000b16:	b759                	j	40000a9c <ee_vsprintf+0x4c>
40000b18:	57fd                	li	a5,-1
40000b1a:	fcf42a23          	sw	a5,-44(s0)
40000b1e:	fb842783          	lw	a5,-72(s0)
40000b22:	0007c703          	lbu	a4,0(a5)
40000b26:	02f00793          	li	a5,47
40000b2a:	02e7f263          	bgeu	a5,a4,40000b4e <ee_vsprintf+0xfe>
40000b2e:	fb842783          	lw	a5,-72(s0)
40000b32:	0007c703          	lbu	a4,0(a5)
40000b36:	03900793          	li	a5,57
40000b3a:	00e7ea63          	bltu	a5,a4,40000b4e <ee_vsprintf+0xfe>
40000b3e:	fb840793          	addi	a5,s0,-72
40000b42:	853e                	mv	a0,a5
40000b44:	ff2ff0ef          	jal	ra,40000336 <skip_atoi>
40000b48:	fca42a23          	sw	a0,-44(s0)
40000b4c:	a0b9                	j	40000b9a <ee_vsprintf+0x14a>
40000b4e:	fb842783          	lw	a5,-72(s0)
40000b52:	0007c703          	lbu	a4,0(a5)
40000b56:	02a00793          	li	a5,42
40000b5a:	04f71063          	bne	a4,a5,40000b9a <ee_vsprintf+0x14a>
40000b5e:	fb842783          	lw	a5,-72(s0)
40000b62:	0785                	addi	a5,a5,1
40000b64:	faf42c23          	sw	a5,-72(s0)
40000b68:	fb442783          	lw	a5,-76(s0)
40000b6c:	00478713          	addi	a4,a5,4
40000b70:	fae42a23          	sw	a4,-76(s0)
40000b74:	439c                	lw	a5,0(a5)
40000b76:	fcf42a23          	sw	a5,-44(s0)
40000b7a:	fd442783          	lw	a5,-44(s0)
40000b7e:	0007de63          	bgez	a5,40000b9a <ee_vsprintf+0x14a>
40000b82:	fd442783          	lw	a5,-44(s0)
40000b86:	40f007b3          	neg	a5,a5
40000b8a:	fcf42a23          	sw	a5,-44(s0)
40000b8e:	fd842783          	lw	a5,-40(s0)
40000b92:	0107e793          	ori	a5,a5,16
40000b96:	fcf42c23          	sw	a5,-40(s0)
40000b9a:	57fd                	li	a5,-1
40000b9c:	fcf42823          	sw	a5,-48(s0)
40000ba0:	fb842783          	lw	a5,-72(s0)
40000ba4:	0007c703          	lbu	a4,0(a5)
40000ba8:	02e00793          	li	a5,46
40000bac:	06f71b63          	bne	a4,a5,40000c22 <ee_vsprintf+0x1d2>
40000bb0:	fb842783          	lw	a5,-72(s0)
40000bb4:	0785                	addi	a5,a5,1
40000bb6:	faf42c23          	sw	a5,-72(s0)
40000bba:	fb842783          	lw	a5,-72(s0)
40000bbe:	0007c703          	lbu	a4,0(a5)
40000bc2:	02f00793          	li	a5,47
40000bc6:	02e7f263          	bgeu	a5,a4,40000bea <ee_vsprintf+0x19a>
40000bca:	fb842783          	lw	a5,-72(s0)
40000bce:	0007c703          	lbu	a4,0(a5)
40000bd2:	03900793          	li	a5,57
40000bd6:	00e7ea63          	bltu	a5,a4,40000bea <ee_vsprintf+0x19a>
40000bda:	fb840793          	addi	a5,s0,-72
40000bde:	853e                	mv	a0,a5
40000be0:	f56ff0ef          	jal	ra,40000336 <skip_atoi>
40000be4:	fca42823          	sw	a0,-48(s0)
40000be8:	a03d                	j	40000c16 <ee_vsprintf+0x1c6>
40000bea:	fb842783          	lw	a5,-72(s0)
40000bee:	0007c703          	lbu	a4,0(a5)
40000bf2:	02a00793          	li	a5,42
40000bf6:	02f71063          	bne	a4,a5,40000c16 <ee_vsprintf+0x1c6>
40000bfa:	fb842783          	lw	a5,-72(s0)
40000bfe:	0785                	addi	a5,a5,1
40000c00:	faf42c23          	sw	a5,-72(s0)
40000c04:	fb442783          	lw	a5,-76(s0)
40000c08:	00478713          	addi	a4,a5,4
40000c0c:	fae42a23          	sw	a4,-76(s0)
40000c10:	439c                	lw	a5,0(a5)
40000c12:	fcf42823          	sw	a5,-48(s0)
40000c16:	fd042783          	lw	a5,-48(s0)
40000c1a:	0007d463          	bgez	a5,40000c22 <ee_vsprintf+0x1d2>
40000c1e:	fc042823          	sw	zero,-48(s0)
40000c22:	57fd                	li	a5,-1
40000c24:	fcf42623          	sw	a5,-52(s0)
40000c28:	fb842783          	lw	a5,-72(s0)
40000c2c:	0007c703          	lbu	a4,0(a5)
40000c30:	06c00793          	li	a5,108
40000c34:	00f70a63          	beq	a4,a5,40000c48 <ee_vsprintf+0x1f8>
40000c38:	fb842783          	lw	a5,-72(s0)
40000c3c:	0007c703          	lbu	a4,0(a5)
40000c40:	04c00793          	li	a5,76
40000c44:	00f71d63          	bne	a4,a5,40000c5e <ee_vsprintf+0x20e>
40000c48:	fb842783          	lw	a5,-72(s0)
40000c4c:	0007c783          	lbu	a5,0(a5)
40000c50:	fcf42623          	sw	a5,-52(s0)
40000c54:	fb842783          	lw	a5,-72(s0)
40000c58:	0785                	addi	a5,a5,1
40000c5a:	faf42c23          	sw	a5,-72(s0)
40000c5e:	47a9                	li	a5,10
40000c60:	fef42223          	sw	a5,-28(s0)
40000c64:	fb842783          	lw	a5,-72(s0)
40000c68:	0007c783          	lbu	a5,0(a5)
40000c6c:	fbf78793          	addi	a5,a5,-65
40000c70:	03700713          	li	a4,55
40000c74:	24f76463          	bltu	a4,a5,40000ebc <ee_vsprintf+0x46c>
40000c78:	00279713          	slli	a4,a5,0x2
40000c7c:	00000797          	auipc	a5,0x0
40000c80:	72078793          	addi	a5,a5,1824 # 4000139c <main+0x25a>
40000c84:	97ba                	add	a5,a5,a4
40000c86:	4398                	lw	a4,0(a5)
40000c88:	00000797          	auipc	a5,0x0
40000c8c:	71478793          	addi	a5,a5,1812 # 4000139c <main+0x25a>
40000c90:	97ba                	add	a5,a5,a4
40000c92:	8782                	jr	a5
40000c94:	fd842783          	lw	a5,-40(s0)
40000c98:	8bc1                	andi	a5,a5,16
40000c9a:	e78d                	bnez	a5,40000cc4 <ee_vsprintf+0x274>
40000c9c:	a819                	j	40000cb2 <ee_vsprintf+0x262>
40000c9e:	fe042783          	lw	a5,-32(s0)
40000ca2:	00178713          	addi	a4,a5,1
40000ca6:	fee42023          	sw	a4,-32(s0)
40000caa:	02000713          	li	a4,32
40000cae:	00e78023          	sb	a4,0(a5)
40000cb2:	fd442783          	lw	a5,-44(s0)
40000cb6:	17fd                	addi	a5,a5,-1
40000cb8:	fcf42a23          	sw	a5,-44(s0)
40000cbc:	fd442783          	lw	a5,-44(s0)
40000cc0:	fcf04fe3          	bgtz	a5,40000c9e <ee_vsprintf+0x24e>
40000cc4:	fb442783          	lw	a5,-76(s0)
40000cc8:	00478713          	addi	a4,a5,4
40000ccc:	fae42a23          	sw	a4,-76(s0)
40000cd0:	4394                	lw	a3,0(a5)
40000cd2:	fe042783          	lw	a5,-32(s0)
40000cd6:	00178713          	addi	a4,a5,1
40000cda:	fee42023          	sw	a4,-32(s0)
40000cde:	0ff6f713          	andi	a4,a3,255
40000ce2:	00e78023          	sb	a4,0(a5)
40000ce6:	a819                	j	40000cfc <ee_vsprintf+0x2ac>
40000ce8:	fe042783          	lw	a5,-32(s0)
40000cec:	00178713          	addi	a4,a5,1
40000cf0:	fee42023          	sw	a4,-32(s0)
40000cf4:	02000713          	li	a4,32
40000cf8:	00e78023          	sb	a4,0(a5)
40000cfc:	fd442783          	lw	a5,-44(s0)
40000d00:	17fd                	addi	a5,a5,-1
40000d02:	fcf42a23          	sw	a5,-44(s0)
40000d06:	fd442783          	lw	a5,-44(s0)
40000d0a:	fcf04fe3          	bgtz	a5,40000ce8 <ee_vsprintf+0x298>
40000d0e:	ac8d                	j	40000f80 <ee_vsprintf+0x530>
40000d10:	fb442783          	lw	a5,-76(s0)
40000d14:	00478713          	addi	a4,a5,4
40000d18:	fae42a23          	sw	a4,-76(s0)
40000d1c:	439c                	lw	a5,0(a5)
40000d1e:	fcf42e23          	sw	a5,-36(s0)
40000d22:	fdc42783          	lw	a5,-36(s0)
40000d26:	e799                	bnez	a5,40000d34 <ee_vsprintf+0x2e4>
40000d28:	00000797          	auipc	a5,0x0
40000d2c:	62878793          	addi	a5,a5,1576 # 40001350 <main+0x20e>
40000d30:	fcf42e23          	sw	a5,-36(s0)
40000d34:	fd042783          	lw	a5,-48(s0)
40000d38:	85be                	mv	a1,a5
40000d3a:	fdc42503          	lw	a0,-36(s0)
40000d3e:	daaff0ef          	jal	ra,400002e8 <strnlen>
40000d42:	87aa                	mv	a5,a0
40000d44:	fcf42423          	sw	a5,-56(s0)
40000d48:	fd842783          	lw	a5,-40(s0)
40000d4c:	8bc1                	andi	a5,a5,16
40000d4e:	e795                	bnez	a5,40000d7a <ee_vsprintf+0x32a>
40000d50:	a819                	j	40000d66 <ee_vsprintf+0x316>
40000d52:	fe042783          	lw	a5,-32(s0)
40000d56:	00178713          	addi	a4,a5,1
40000d5a:	fee42023          	sw	a4,-32(s0)
40000d5e:	02000713          	li	a4,32
40000d62:	00e78023          	sb	a4,0(a5)
40000d66:	fd442783          	lw	a5,-44(s0)
40000d6a:	fff78713          	addi	a4,a5,-1
40000d6e:	fce42a23          	sw	a4,-44(s0)
40000d72:	fc842703          	lw	a4,-56(s0)
40000d76:	fcf74ee3          	blt	a4,a5,40000d52 <ee_vsprintf+0x302>
40000d7a:	fe042423          	sw	zero,-24(s0)
40000d7e:	a035                	j	40000daa <ee_vsprintf+0x35a>
40000d80:	fdc42703          	lw	a4,-36(s0)
40000d84:	00170793          	addi	a5,a4,1
40000d88:	fcf42e23          	sw	a5,-36(s0)
40000d8c:	fe042783          	lw	a5,-32(s0)
40000d90:	00178693          	addi	a3,a5,1
40000d94:	fed42023          	sw	a3,-32(s0)
40000d98:	00074703          	lbu	a4,0(a4)
40000d9c:	00e78023          	sb	a4,0(a5)
40000da0:	fe842783          	lw	a5,-24(s0)
40000da4:	0785                	addi	a5,a5,1
40000da6:	fef42423          	sw	a5,-24(s0)
40000daa:	fe842703          	lw	a4,-24(s0)
40000dae:	fc842783          	lw	a5,-56(s0)
40000db2:	fcf747e3          	blt	a4,a5,40000d80 <ee_vsprintf+0x330>
40000db6:	a819                	j	40000dcc <ee_vsprintf+0x37c>
40000db8:	fe042783          	lw	a5,-32(s0)
40000dbc:	00178713          	addi	a4,a5,1
40000dc0:	fee42023          	sw	a4,-32(s0)
40000dc4:	02000713          	li	a4,32
40000dc8:	00e78023          	sb	a4,0(a5)
40000dcc:	fd442783          	lw	a5,-44(s0)
40000dd0:	fff78713          	addi	a4,a5,-1
40000dd4:	fce42a23          	sw	a4,-44(s0)
40000dd8:	fc842703          	lw	a4,-56(s0)
40000ddc:	fcf74ee3          	blt	a4,a5,40000db8 <ee_vsprintf+0x368>
40000de0:	a245                	j	40000f80 <ee_vsprintf+0x530>
40000de2:	fd442703          	lw	a4,-44(s0)
40000de6:	57fd                	li	a5,-1
40000de8:	00f71b63          	bne	a4,a5,40000dfe <ee_vsprintf+0x3ae>
40000dec:	47a1                	li	a5,8
40000dee:	fcf42a23          	sw	a5,-44(s0)
40000df2:	fd842783          	lw	a5,-40(s0)
40000df6:	0017e793          	ori	a5,a5,1
40000dfa:	fcf42c23          	sw	a5,-40(s0)
40000dfe:	fb442783          	lw	a5,-76(s0)
40000e02:	00478713          	addi	a4,a5,4
40000e06:	fae42a23          	sw	a4,-76(s0)
40000e0a:	439c                	lw	a5,0(a5)
40000e0c:	85be                	mv	a1,a5
40000e0e:	fd842783          	lw	a5,-40(s0)
40000e12:	fd042703          	lw	a4,-48(s0)
40000e16:	fd442683          	lw	a3,-44(s0)
40000e1a:	4641                	li	a2,16
40000e1c:	fe042503          	lw	a0,-32(s0)
40000e20:	d82ff0ef          	jal	ra,400003a2 <number>
40000e24:	fea42023          	sw	a0,-32(s0)
40000e28:	aaa1                	j	40000f80 <ee_vsprintf+0x530>
40000e2a:	fd842783          	lw	a5,-40(s0)
40000e2e:	0407e793          	ori	a5,a5,64
40000e32:	fcf42c23          	sw	a5,-40(s0)
40000e36:	fcc42703          	lw	a4,-52(s0)
40000e3a:	06c00793          	li	a5,108
40000e3e:	02f71663          	bne	a4,a5,40000e6a <ee_vsprintf+0x41a>
40000e42:	fb442783          	lw	a5,-76(s0)
40000e46:	00478713          	addi	a4,a5,4
40000e4a:	fae42a23          	sw	a4,-76(s0)
40000e4e:	439c                	lw	a5,0(a5)
40000e50:	fd842703          	lw	a4,-40(s0)
40000e54:	fd042683          	lw	a3,-48(s0)
40000e58:	fd442603          	lw	a2,-44(s0)
40000e5c:	85be                	mv	a1,a5
40000e5e:	fe042503          	lw	a0,-32(s0)
40000e62:	30b1                	jal	400006ae <eaddr>
40000e64:	fea42023          	sw	a0,-32(s0)
40000e68:	aa21                	j	40000f80 <ee_vsprintf+0x530>
40000e6a:	fb442783          	lw	a5,-76(s0)
40000e6e:	00478713          	addi	a4,a5,4
40000e72:	fae42a23          	sw	a4,-76(s0)
40000e76:	439c                	lw	a5,0(a5)
40000e78:	fd842703          	lw	a4,-40(s0)
40000e7c:	fd042683          	lw	a3,-48(s0)
40000e80:	fd442603          	lw	a2,-44(s0)
40000e84:	85be                	mv	a1,a5
40000e86:	fe042503          	lw	a0,-32(s0)
40000e8a:	324d                	jal	4000082c <iaddr>
40000e8c:	fea42023          	sw	a0,-32(s0)
40000e90:	a8c5                	j	40000f80 <ee_vsprintf+0x530>
40000e92:	47a1                	li	a5,8
40000e94:	fef42223          	sw	a5,-28(s0)
40000e98:	a8ad                	j	40000f12 <ee_vsprintf+0x4c2>
40000e9a:	fd842783          	lw	a5,-40(s0)
40000e9e:	0407e793          	ori	a5,a5,64
40000ea2:	fcf42c23          	sw	a5,-40(s0)
40000ea6:	47c1                	li	a5,16
40000ea8:	fef42223          	sw	a5,-28(s0)
40000eac:	a09d                	j	40000f12 <ee_vsprintf+0x4c2>
40000eae:	fd842783          	lw	a5,-40(s0)
40000eb2:	0027e793          	ori	a5,a5,2
40000eb6:	fcf42c23          	sw	a5,-40(s0)
40000eba:	a899                	j	40000f10 <ee_vsprintf+0x4c0>
40000ebc:	fb842783          	lw	a5,-72(s0)
40000ec0:	0007c703          	lbu	a4,0(a5)
40000ec4:	02500793          	li	a5,37
40000ec8:	00f70c63          	beq	a4,a5,40000ee0 <ee_vsprintf+0x490>
40000ecc:	fe042783          	lw	a5,-32(s0)
40000ed0:	00178713          	addi	a4,a5,1
40000ed4:	fee42023          	sw	a4,-32(s0)
40000ed8:	02500713          	li	a4,37
40000edc:	00e78023          	sb	a4,0(a5)
40000ee0:	fb842783          	lw	a5,-72(s0)
40000ee4:	0007c783          	lbu	a5,0(a5)
40000ee8:	cf91                	beqz	a5,40000f04 <ee_vsprintf+0x4b4>
40000eea:	fb842703          	lw	a4,-72(s0)
40000eee:	fe042783          	lw	a5,-32(s0)
40000ef2:	00178693          	addi	a3,a5,1
40000ef6:	fed42023          	sw	a3,-32(s0)
40000efa:	00074703          	lbu	a4,0(a4)
40000efe:	00e78023          	sb	a4,0(a5)
40000f02:	a8bd                	j	40000f80 <ee_vsprintf+0x530>
40000f04:	fb842783          	lw	a5,-72(s0)
40000f08:	17fd                	addi	a5,a5,-1
40000f0a:	faf42c23          	sw	a5,-72(s0)
40000f0e:	a88d                	j	40000f80 <ee_vsprintf+0x530>
40000f10:	0001                	nop
40000f12:	fcc42703          	lw	a4,-52(s0)
40000f16:	06c00793          	li	a5,108
40000f1a:	00f71c63          	bne	a4,a5,40000f32 <ee_vsprintf+0x4e2>
40000f1e:	fb442783          	lw	a5,-76(s0)
40000f22:	00478713          	addi	a4,a5,4
40000f26:	fae42a23          	sw	a4,-76(s0)
40000f2a:	439c                	lw	a5,0(a5)
40000f2c:	fef42623          	sw	a5,-20(s0)
40000f30:	a805                	j	40000f60 <ee_vsprintf+0x510>
40000f32:	fd842783          	lw	a5,-40(s0)
40000f36:	8b89                	andi	a5,a5,2
40000f38:	cb99                	beqz	a5,40000f4e <ee_vsprintf+0x4fe>
40000f3a:	fb442783          	lw	a5,-76(s0)
40000f3e:	00478713          	addi	a4,a5,4
40000f42:	fae42a23          	sw	a4,-76(s0)
40000f46:	439c                	lw	a5,0(a5)
40000f48:	fef42623          	sw	a5,-20(s0)
40000f4c:	a811                	j	40000f60 <ee_vsprintf+0x510>
40000f4e:	fb442783          	lw	a5,-76(s0)
40000f52:	00478713          	addi	a4,a5,4
40000f56:	fae42a23          	sw	a4,-76(s0)
40000f5a:	439c                	lw	a5,0(a5)
40000f5c:	fef42623          	sw	a5,-20(s0)
40000f60:	fec42583          	lw	a1,-20(s0)
40000f64:	fd842783          	lw	a5,-40(s0)
40000f68:	fd042703          	lw	a4,-48(s0)
40000f6c:	fd442683          	lw	a3,-44(s0)
40000f70:	fe442603          	lw	a2,-28(s0)
40000f74:	fe042503          	lw	a0,-32(s0)
40000f78:	c2aff0ef          	jal	ra,400003a2 <number>
40000f7c:	fea42023          	sw	a0,-32(s0)
40000f80:	fb842783          	lw	a5,-72(s0)
40000f84:	0785                	addi	a5,a5,1
40000f86:	faf42c23          	sw	a5,-72(s0)
40000f8a:	fb842783          	lw	a5,-72(s0)
40000f8e:	0007c783          	lbu	a5,0(a5)
40000f92:	ac079ee3          	bnez	a5,40000a6e <ee_vsprintf+0x1e>
40000f96:	fe042783          	lw	a5,-32(s0)
40000f9a:	00078023          	sb	zero,0(a5)
40000f9e:	fe042703          	lw	a4,-32(s0)
40000fa2:	fbc42783          	lw	a5,-68(s0)
40000fa6:	40f707b3          	sub	a5,a4,a5
40000faa:	853e                	mv	a0,a5
40000fac:	40b6                	lw	ra,76(sp)
40000fae:	4426                	lw	s0,72(sp)
40000fb0:	6161                	addi	sp,sp,80
40000fb2:	8082                	ret

40000fb4 <ee_printf>:
40000fb4:	bb010113          	addi	sp,sp,-1104
40000fb8:	42112623          	sw	ra,1068(sp)
40000fbc:	42812423          	sw	s0,1064(sp)
40000fc0:	43010413          	addi	s0,sp,1072
40000fc4:	bca42e23          	sw	a0,-1060(s0)
40000fc8:	c04c                	sw	a1,4(s0)
40000fca:	c410                	sw	a2,8(s0)
40000fcc:	c454                	sw	a3,12(s0)
40000fce:	c818                	sw	a4,16(s0)
40000fd0:	c85c                	sw	a5,20(s0)
40000fd2:	01042c23          	sw	a6,24(s0)
40000fd6:	01142e23          	sw	a7,28(s0)
40000fda:	02040793          	addi	a5,s0,32
40000fde:	bcf42c23          	sw	a5,-1064(s0)
40000fe2:	bd842783          	lw	a5,-1064(s0)
40000fe6:	1791                	addi	a5,a5,-28
40000fe8:	bef42423          	sw	a5,-1048(s0)
40000fec:	be842703          	lw	a4,-1048(s0)
40000ff0:	bec40793          	addi	a5,s0,-1044
40000ff4:	863a                	mv	a2,a4
40000ff6:	bdc42583          	lw	a1,-1060(s0)
40000ffa:	853e                	mv	a0,a5
40000ffc:	3c91                	jal	40000a50 <ee_vsprintf>
40000ffe:	fe042623          	sw	zero,-20(s0)
40001002:	a005                	j	40001022 <ee_printf+0x6e>
40001004:	fec42783          	lw	a5,-20(s0)
40001008:	ff040713          	addi	a4,s0,-16
4000100c:	97ba                	add	a5,a5,a4
4000100e:	bfc7c783          	lbu	a5,-1028(a5)
40001012:	853e                	mv	a0,a5
40001014:	a38ff0ef          	jal	ra,4000024c <uart_write>
40001018:	fec42783          	lw	a5,-20(s0)
4000101c:	0785                	addi	a5,a5,1
4000101e:	fef42623          	sw	a5,-20(s0)
40001022:	fec42783          	lw	a5,-20(s0)
40001026:	ff040713          	addi	a4,s0,-16
4000102a:	97ba                	add	a5,a5,a4
4000102c:	bfc7c783          	lbu	a5,-1028(a5)
40001030:	fbf1                	bnez	a5,40001004 <ee_printf+0x50>
40001032:	fec42783          	lw	a5,-20(s0)
40001036:	853e                	mv	a0,a5
40001038:	42c12083          	lw	ra,1068(sp)
4000103c:	42812403          	lw	s0,1064(sp)
40001040:	45010113          	addi	sp,sp,1104
40001044:	8082                	ret

40001046 <pcg_hash>:
40001046:	7179                	addi	sp,sp,-48
40001048:	d622                	sw	s0,44(sp)
4000104a:	1800                	addi	s0,sp,48
4000104c:	fca42e23          	sw	a0,-36(s0)
40001050:	fdc42703          	lw	a4,-36(s0)
40001054:	2c9277b7          	lui	a5,0x2c927
40001058:	7b578793          	addi	a5,a5,1973 # 2c9277b5 <_tbss_end+0x2c9277b5>
4000105c:	02f70733          	mul	a4,a4,a5
40001060:	ac5657b7          	lui	a5,0xac565
40001064:	b0578793          	addi	a5,a5,-1275 # ac564b05 <_end+0x6c5235d5>
40001068:	97ba                	add	a5,a5,a4
4000106a:	fef42623          	sw	a5,-20(s0)
4000106e:	fec42783          	lw	a5,-20(s0)
40001072:	83f1                	srli	a5,a5,0x1c
40001074:	0791                	addi	a5,a5,4
40001076:	fec42703          	lw	a4,-20(s0)
4000107a:	00f75733          	srl	a4,a4,a5
4000107e:	fec42783          	lw	a5,-20(s0)
40001082:	8f3d                	xor	a4,a4,a5
40001084:	108ef7b7          	lui	a5,0x108ef
40001088:	2d978793          	addi	a5,a5,729 # 108ef2d9 <_tbss_end+0x108ef2d9>
4000108c:	02f707b3          	mul	a5,a4,a5
40001090:	fef42423          	sw	a5,-24(s0)
40001094:	fe842783          	lw	a5,-24(s0)
40001098:	0167d713          	srli	a4,a5,0x16
4000109c:	fe842783          	lw	a5,-24(s0)
400010a0:	8fb9                	xor	a5,a5,a4
400010a2:	853e                	mv	a0,a5
400010a4:	5432                	lw	s0,44(sp)
400010a6:	6145                	addi	sp,sp,48
400010a8:	8082                	ret

400010aa <send_int>:
400010aa:	7179                	addi	sp,sp,-48
400010ac:	d606                	sw	ra,44(sp)
400010ae:	d422                	sw	s0,40(sp)
400010b0:	1800                	addi	s0,sp,48
400010b2:	fca42e23          	sw	a0,-36(s0)
400010b6:	fe042623          	sw	zero,-20(s0)
400010ba:	fdc42703          	lw	a4,-36(s0)
400010be:	47a9                	li	a5,10
400010c0:	02f777b3          	remu	a5,a4,a5
400010c4:	0ff7f793          	andi	a5,a5,255
400010c8:	86be                	mv	a3,a5
400010ca:	fec42783          	lw	a5,-20(s0)
400010ce:	00178713          	addi	a4,a5,1
400010d2:	fee42623          	sw	a4,-20(s0)
400010d6:	6721                	lui	a4,0x8
400010d8:	97ba                	add	a5,a5,a4
400010da:	03068713          	addi	a4,a3,48
400010de:	00000697          	auipc	a3,0x0
400010e2:	44a68693          	addi	a3,a3,1098 # 40001528 <stack>
400010e6:	078a                	slli	a5,a5,0x2
400010e8:	97b6                	add	a5,a5,a3
400010ea:	c398                	sw	a4,0(a5)
400010ec:	fdc42703          	lw	a4,-36(s0)
400010f0:	47a9                	li	a5,10
400010f2:	02f757b3          	divu	a5,a4,a5
400010f6:	fcf42e23          	sw	a5,-36(s0)
400010fa:	fdc42783          	lw	a5,-36(s0)
400010fe:	ffd5                	bnez	a5,400010ba <send_int+0x10>
40001100:	a03d                	j	4000112e <send_int+0x84>
40001102:	fec42783          	lw	a5,-20(s0)
40001106:	17fd                	addi	a5,a5,-1
40001108:	fef42623          	sw	a5,-20(s0)
4000110c:	fec42703          	lw	a4,-20(s0)
40001110:	67a1                	lui	a5,0x8
40001112:	97ba                	add	a5,a5,a4
40001114:	00000717          	auipc	a4,0x0
40001118:	41470713          	addi	a4,a4,1044 # 40001528 <stack>
4000111c:	078a                	slli	a5,a5,0x2
4000111e:	97ba                	add	a5,a5,a4
40001120:	439c                	lw	a5,0(a5)
40001122:	85be                	mv	a1,a5
40001124:	00000517          	auipc	a0,0x0
40001128:	35850513          	addi	a0,a0,856 # 4000147c <main+0x33a>
4000112c:	3561                	jal	40000fb4 <ee_printf>
4000112e:	fec42783          	lw	a5,-20(s0)
40001132:	fcf048e3          	bgtz	a5,40001102 <send_int+0x58>
40001136:	0001                	nop
40001138:	0001                	nop
4000113a:	50b2                	lw	ra,44(sp)
4000113c:	5422                	lw	s0,40(sp)
4000113e:	6145                	addi	sp,sp,48
40001140:	8082                	ret

40001142 <main>:
40001142:	7179                	addi	sp,sp,-48
40001144:	d606                	sw	ra,44(sp)
40001146:	d422                	sw	s0,40(sp)
40001148:	1800                	addi	s0,sp,48
4000114a:	4605                	li	a2,1
4000114c:	4585                	li	a1,1
4000114e:	36400513          	li	a0,868
40001152:	ffdfe0ef          	jal	ra,4000014e <uart_set_ctrl>
40001156:	fe042623          	sw	zero,-20(s0)
4000115a:	a00d                	j	4000117c <main+0x3a>
4000115c:	00020717          	auipc	a4,0x20
40001160:	3d470713          	addi	a4,a4,980 # 40021530 <indexes>
40001164:	fec42783          	lw	a5,-20(s0)
40001168:	078a                	slli	a5,a5,0x2
4000116a:	97ba                	add	a5,a5,a4
4000116c:	fec42703          	lw	a4,-20(s0)
40001170:	c398                	sw	a4,0(a5)
40001172:	fec42783          	lw	a5,-20(s0)
40001176:	0785                	addi	a5,a5,1
40001178:	fef42623          	sw	a5,-20(s0)
4000117c:	fec42703          	lw	a4,-20(s0)
40001180:	67a1                	lui	a5,0x8
40001182:	fcf74de3          	blt	a4,a5,4000115c <main+0x1a>
40001186:	fe042423          	sw	zero,-24(s0)
4000118a:	a88d                	j	400011fc <main+0xba>
4000118c:	fe842783          	lw	a5,-24(s0)
40001190:	853e                	mv	a0,a5
40001192:	3d55                	jal	40001046 <pcg_hash>
40001194:	87aa                	mv	a5,a0
40001196:	873e                	mv	a4,a5
40001198:	67a1                	lui	a5,0x8
4000119a:	17fd                	addi	a5,a5,-1
4000119c:	8ff9                	and	a5,a5,a4
4000119e:	fcf42a23          	sw	a5,-44(s0)
400011a2:	00020717          	auipc	a4,0x20
400011a6:	38e70713          	addi	a4,a4,910 # 40021530 <indexes>
400011aa:	fe842783          	lw	a5,-24(s0)
400011ae:	078a                	slli	a5,a5,0x2
400011b0:	97ba                	add	a5,a5,a4
400011b2:	439c                	lw	a5,0(a5)
400011b4:	fcf42823          	sw	a5,-48(s0)
400011b8:	00020717          	auipc	a4,0x20
400011bc:	37870713          	addi	a4,a4,888 # 40021530 <indexes>
400011c0:	fd442783          	lw	a5,-44(s0)
400011c4:	078a                	slli	a5,a5,0x2
400011c6:	97ba                	add	a5,a5,a4
400011c8:	4398                	lw	a4,0(a5)
400011ca:	00020697          	auipc	a3,0x20
400011ce:	36668693          	addi	a3,a3,870 # 40021530 <indexes>
400011d2:	fe842783          	lw	a5,-24(s0)
400011d6:	078a                	slli	a5,a5,0x2
400011d8:	97b6                	add	a5,a5,a3
400011da:	c398                	sw	a4,0(a5)
400011dc:	00020717          	auipc	a4,0x20
400011e0:	35470713          	addi	a4,a4,852 # 40021530 <indexes>
400011e4:	fd442783          	lw	a5,-44(s0)
400011e8:	078a                	slli	a5,a5,0x2
400011ea:	97ba                	add	a5,a5,a4
400011ec:	fd042703          	lw	a4,-48(s0)
400011f0:	c398                	sw	a4,0(a5)
400011f2:	fe842783          	lw	a5,-24(s0)
400011f6:	0785                	addi	a5,a5,1
400011f8:	fef42423          	sw	a5,-24(s0)
400011fc:	fe842703          	lw	a4,-24(s0)
40001200:	67a1                	lui	a5,0x8
40001202:	f8f745e3          	blt	a4,a5,4000118c <main+0x4a>
40001206:	fe042223          	sw	zero,-28(s0)
4000120a:	a805                	j	4000123a <main+0xf8>
4000120c:	00020717          	auipc	a4,0x20
40001210:	32470713          	addi	a4,a4,804 # 40021530 <indexes>
40001214:	fe442783          	lw	a5,-28(s0)
40001218:	078a                	slli	a5,a5,0x2
4000121a:	97ba                	add	a5,a5,a4
4000121c:	439c                	lw	a5,0(a5)
4000121e:	00000717          	auipc	a4,0x0
40001222:	30a70713          	addi	a4,a4,778 # 40001528 <stack>
40001226:	078a                	slli	a5,a5,0x2
40001228:	97ba                	add	a5,a5,a4
4000122a:	fe442703          	lw	a4,-28(s0)
4000122e:	c398                	sw	a4,0(a5)
40001230:	fe442783          	lw	a5,-28(s0)
40001234:	0785                	addi	a5,a5,1
40001236:	fef42223          	sw	a5,-28(s0)
4000123a:	fe442703          	lw	a4,-28(s0)
4000123e:	67a1                	lui	a5,0x8
40001240:	fcf746e3          	blt	a4,a5,4000120c <main+0xca>
40001244:	fe042023          	sw	zero,-32(s0)
40001248:	a89d                	j	400012be <main+0x17c>
4000124a:	00020717          	auipc	a4,0x20
4000124e:	2e670713          	addi	a4,a4,742 # 40021530 <indexes>
40001252:	fe042783          	lw	a5,-32(s0)
40001256:	078a                	slli	a5,a5,0x2
40001258:	97ba                	add	a5,a5,a4
4000125a:	439c                	lw	a5,0(a5)
4000125c:	00000717          	auipc	a4,0x0
40001260:	2cc70713          	addi	a4,a4,716 # 40001528 <stack>
40001264:	078a                	slli	a5,a5,0x2
40001266:	97ba                	add	a5,a5,a4
40001268:	439c                	lw	a5,0(a5)
4000126a:	fe042703          	lw	a4,-32(s0)
4000126e:	04f70363          	beq	a4,a5,400012b4 <main+0x172>
40001272:	00020717          	auipc	a4,0x20
40001276:	2be70713          	addi	a4,a4,702 # 40021530 <indexes>
4000127a:	fe042783          	lw	a5,-32(s0)
4000127e:	078a                	slli	a5,a5,0x2
40001280:	97ba                	add	a5,a5,a4
40001282:	438c                	lw	a1,0(a5)
40001284:	00020717          	auipc	a4,0x20
40001288:	2ac70713          	addi	a4,a4,684 # 40021530 <indexes>
4000128c:	fe042783          	lw	a5,-32(s0)
40001290:	078a                	slli	a5,a5,0x2
40001292:	97ba                	add	a5,a5,a4
40001294:	439c                	lw	a5,0(a5)
40001296:	00000717          	auipc	a4,0x0
4000129a:	29270713          	addi	a4,a4,658 # 40001528 <stack>
4000129e:	078a                	slli	a5,a5,0x2
400012a0:	97ba                	add	a5,a5,a4
400012a2:	439c                	lw	a5,0(a5)
400012a4:	86be                	mv	a3,a5
400012a6:	fe042603          	lw	a2,-32(s0)
400012aa:	00000517          	auipc	a0,0x0
400012ae:	1d650513          	addi	a0,a0,470 # 40001480 <main+0x33e>
400012b2:	3309                	jal	40000fb4 <ee_printf>
400012b4:	fe042783          	lw	a5,-32(s0)
400012b8:	0785                	addi	a5,a5,1
400012ba:	fef42023          	sw	a5,-32(s0)
400012be:	fe042703          	lw	a4,-32(s0)
400012c2:	67a1                	lui	a5,0x8
400012c4:	f8f743e3          	blt	a4,a5,4000124a <main+0x108>
400012c8:	300007b7          	lui	a5,0x30000
400012cc:	4398                	lw	a4,0(a5)
400012ce:	43dc                	lw	a5,4(a5)
400012d0:	fce42c23          	sw	a4,-40(s0)
400012d4:	fcf42e23          	sw	a5,-36(s0)
400012d8:	fd842603          	lw	a2,-40(s0)
400012dc:	fdc42683          	lw	a3,-36(s0)
400012e0:	00000517          	auipc	a0,0x0
400012e4:	1b050513          	addi	a0,a0,432 # 40001490 <main+0x34e>
400012e8:	31f1                	jal	40000fb4 <ee_printf>
400012ea:	00000517          	auipc	a0,0x0
400012ee:	1b250513          	addi	a0,a0,434 # 4000149c <main+0x35a>
400012f2:	31c9                	jal	40000fb4 <ee_printf>
400012f4:	4781                	li	a5,0
400012f6:	853e                	mv	a0,a5
400012f8:	50b2                	lw	ra,44(sp)
400012fa:	5422                	lw	s0,40(sp)
400012fc:	6145                	addi	sp,sp,48
400012fe:	8082                	ret

Disassembly of section .rodata:

40001300 <.rodata>:
40001300:	3130                	fld	fa2,96(a0)
40001302:	3332                	fld	ft6,296(sp)
40001304:	3534                	fld	fa3,104(a0)
40001306:	3736                	fld	fa4,360(sp)
40001308:	3938                	fld	fa4,112(a0)
4000130a:	6261                	lui	tp,0x18
4000130c:	66656463          	bltu	a0,t1,40001974 <stack+0x44c>
40001310:	6a696867          	0x6a696867
40001314:	6e6d6c6b          	0x6e6d6c6b
40001318:	7271706f          	j	4001923e <__global_pointer$+0x17536>
4000131c:	76757473          	csrrci	s0,0x767,10
40001320:	7a797877          	0x7a797877
40001324:	0000                	unimp
40001326:	0000                	unimp
40001328:	3130                	fld	fa2,96(a0)
4000132a:	3332                	fld	ft6,296(sp)
4000132c:	3534                	fld	fa3,104(a0)
4000132e:	3736                	fld	fa4,360(sp)
40001330:	3938                	fld	fa4,112(a0)
40001332:	4241                	li	tp,16
40001334:	46454443          	fmadd.q	fs0,fa0,ft4,fs0,rmm
40001338:	4a494847          	fmsub.d	fa6,fs2,ft4,fs1,rmm
4000133c:	4e4d4c4b          	fnmsub.q	fs8,fs10,ft4,fs1,rmm
40001340:	5251504f          	fnmadd.d	ft0,ft2,ft5,fa0,unknown
40001344:	56555453          	0x56555453
40001348:	5a595857          	0x5a595857
4000134c:	0000                	unimp
4000134e:	0000                	unimp
40001350:	4e3c                	lw	a5,88(a2)
40001352:	4c55                	li	s8,21
40001354:	3e4c                	fld	fa1,184(a2)
40001356:	0000                	unimp
40001358:	f796                	fsw	ft5,236(sp)
4000135a:	ffff                	0xffff
4000135c:	f7c0                	fsw	fs0,44(a5)
4000135e:	ffff                	0xffff
40001360:	f7c0                	fsw	fs0,44(a5)
40001362:	ffff                	0xffff
40001364:	f7a4                	fsw	fs1,104(a5)
40001366:	ffff                	0xffff
40001368:	f7c0                	fsw	fs0,44(a5)
4000136a:	ffff                	0xffff
4000136c:	f7c0                	fsw	fs0,44(a5)
4000136e:	ffff                	0xffff
40001370:	f7c0                	fsw	fs0,44(a5)
40001372:	ffff                	0xffff
40001374:	f7c0                	fsw	fs0,44(a5)
40001376:	ffff                	0xffff
40001378:	f7c0                	fsw	fs0,44(a5)
4000137a:	ffff                	0xffff
4000137c:	f7c0                	fsw	fs0,44(a5)
4000137e:	ffff                	0xffff
40001380:	f7c0                	fsw	fs0,44(a5)
40001382:	ffff                	0xffff
40001384:	f788                	fsw	fa0,40(a5)
40001386:	ffff                	0xffff
40001388:	f7c0                	fsw	fs0,44(a5)
4000138a:	ffff                	0xffff
4000138c:	f77a                	fsw	ft10,172(sp)
4000138e:	ffff                	0xffff
40001390:	f7c0                	fsw	fs0,44(a5)
40001392:	ffff                	0xffff
40001394:	f7c0                	fsw	fs0,44(a5)
40001396:	ffff                	0xffff
40001398:	f7b2                	fsw	fa2,236(sp)
4000139a:	ffff                	0xffff
4000139c:	fa8e                	fsw	ft3,116(sp)
4000139e:	ffff                	0xffff
400013a0:	fb20                	fsw	fs0,112(a4)
400013a2:	ffff                	0xffff
400013a4:	fb20                	fsw	fs0,112(a4)
400013a6:	ffff                	0xffff
400013a8:	fb20                	fsw	fs0,112(a4)
400013aa:	ffff                	0xffff
400013ac:	fb20                	fsw	fs0,112(a4)
400013ae:	ffff                	0xffff
400013b0:	fb20                	fsw	fs0,112(a4)
400013b2:	ffff                	0xffff
400013b4:	fb20                	fsw	fs0,112(a4)
400013b6:	ffff                	0xffff
400013b8:	fb20                	fsw	fs0,112(a4)
400013ba:	ffff                	0xffff
400013bc:	fb20                	fsw	fs0,112(a4)
400013be:	ffff                	0xffff
400013c0:	fb20                	fsw	fs0,112(a4)
400013c2:	ffff                	0xffff
400013c4:	fb20                	fsw	fs0,112(a4)
400013c6:	ffff                	0xffff
400013c8:	fb20                	fsw	fs0,112(a4)
400013ca:	ffff                	0xffff
400013cc:	fb20                	fsw	fs0,112(a4)
400013ce:	ffff                	0xffff
400013d0:	fb20                	fsw	fs0,112(a4)
400013d2:	ffff                	0xffff
400013d4:	fb20                	fsw	fs0,112(a4)
400013d6:	ffff                	0xffff
400013d8:	fb20                	fsw	fs0,112(a4)
400013da:	ffff                	0xffff
400013dc:	fb20                	fsw	fs0,112(a4)
400013de:	ffff                	0xffff
400013e0:	fb20                	fsw	fs0,112(a4)
400013e2:	ffff                	0xffff
400013e4:	fb20                	fsw	fs0,112(a4)
400013e6:	ffff                	0xffff
400013e8:	fb20                	fsw	fs0,112(a4)
400013ea:	ffff                	0xffff
400013ec:	fb20                	fsw	fs0,112(a4)
400013ee:	ffff                	0xffff
400013f0:	fb20                	fsw	fs0,112(a4)
400013f2:	ffff                	0xffff
400013f4:	fb20                	fsw	fs0,112(a4)
400013f6:	ffff                	0xffff
400013f8:	fafe                	fsw	ft11,116(sp)
400013fa:	ffff                	0xffff
400013fc:	fb20                	fsw	fs0,112(a4)
400013fe:	ffff                	0xffff
40001400:	fb20                	fsw	fs0,112(a4)
40001402:	ffff                	0xffff
40001404:	fb20                	fsw	fs0,112(a4)
40001406:	ffff                	0xffff
40001408:	fb20                	fsw	fs0,112(a4)
4000140a:	ffff                	0xffff
4000140c:	fb20                	fsw	fs0,112(a4)
4000140e:	ffff                	0xffff
40001410:	fb20                	fsw	fs0,112(a4)
40001412:	ffff                	0xffff
40001414:	fb20                	fsw	fs0,112(a4)
40001416:	ffff                	0xffff
40001418:	fb20                	fsw	fs0,112(a4)
4000141a:	ffff                	0xffff
4000141c:	fa9a                	fsw	ft6,116(sp)
4000141e:	ffff                	0xffff
40001420:	fb20                	fsw	fs0,112(a4)
40001422:	ffff                	0xffff
40001424:	f8f8                	fsw	fa4,116(s1)
40001426:	ffff                	0xffff
40001428:	fb12                	fsw	ft4,180(sp)
4000142a:	ffff                	0xffff
4000142c:	fb20                	fsw	fs0,112(a4)
4000142e:	ffff                	0xffff
40001430:	fb20                	fsw	fs0,112(a4)
40001432:	ffff                	0xffff
40001434:	fb20                	fsw	fs0,112(a4)
40001436:	ffff                	0xffff
40001438:	fb20                	fsw	fs0,112(a4)
4000143a:	ffff                	0xffff
4000143c:	fb12                	fsw	ft4,180(sp)
4000143e:	ffff                	0xffff
40001440:	fb20                	fsw	fs0,112(a4)
40001442:	ffff                	0xffff
40001444:	fb20                	fsw	fs0,112(a4)
40001446:	ffff                	0xffff
40001448:	fb20                	fsw	fs0,112(a4)
4000144a:	ffff                	0xffff
4000144c:	fb20                	fsw	fs0,112(a4)
4000144e:	ffff                	0xffff
40001450:	fb20                	fsw	fs0,112(a4)
40001452:	ffff                	0xffff
40001454:	faf6                	fsw	ft9,116(sp)
40001456:	ffff                	0xffff
40001458:	fa46                	fsw	fa7,52(sp)
4000145a:	ffff                	0xffff
4000145c:	fb20                	fsw	fs0,112(a4)
4000145e:	ffff                	0xffff
40001460:	fb20                	fsw	fs0,112(a4)
40001462:	ffff                	0xffff
40001464:	f974                	fsw	fa3,116(a0)
40001466:	ffff                	0xffff
40001468:	fb20                	fsw	fs0,112(a4)
4000146a:	ffff                	0xffff
4000146c:	fb74                	fsw	fa3,116(a4)
4000146e:	ffff                	0xffff
40001470:	fb20                	fsw	fs0,112(a4)
40001472:	ffff                	0xffff
40001474:	fb20                	fsw	fs0,112(a4)
40001476:	ffff                	0xffff
40001478:	fb0a                	fsw	ft2,180(sp)
4000147a:	ffff                	0xffff
4000147c:	6325                	lui	t1,0x9
4000147e:	0000                	unimp
40001480:	2540                	fld	fs0,136(a0)
40001482:	2064                	fld	fs1,192(s0)
40001484:	6425                	lui	s0,0x9
40001486:	2120                	fld	fs0,64(a0)
40001488:	203d                	jal	400014b6 <main+0x374>
4000148a:	6425                	lui	s0,0x9
4000148c:	000a                	c.slli	zero,0x2
4000148e:	0000                	unimp
40001490:	6954                	flw	fa3,20(a0)
40001492:	656d                	lui	a0,0x1b
40001494:	203a                	fld	ft0,392(sp)
40001496:	6c25                	lui	s8,0x9
40001498:	0a75                	addi	s4,s4,29
4000149a:	0000                	unimp
4000149c:	6942                	flw	fs2,16(sp)
4000149e:	7474                	flw	fa3,108(s0)
400014a0:	0a69                	addi	s4,s4,26
	...

Disassembly of section .tohost:

400014c0 <tohost>:
	...

40001500 <fromhost>:
	...

Disassembly of section .sdata:

40001508 <UART_CONTROL>:
40001508:	0000                	unimp
4000150a:	2000                	fld	fs0,0(s0)

4000150c <UART_STATUS>:
4000150c:	0004                	0x4
4000150e:	2000                	fld	fs0,0(s0)

40001510 <UART_READ>:
40001510:	0008                	0x8
40001512:	2000                	fld	fs0,0(s0)

40001514 <UART_WRITE>:
40001514:	000c                	0xc
40001516:	2000                	fld	fs0,0(s0)

40001518 <digits>:
40001518:	1300                	addi	s0,sp,416
4000151a:	4000                	lw	s0,0(s0)

4000151c <upper_digits>:
4000151c:	1328                	addi	a0,sp,424
4000151e:	4000                	lw	s0,0(s0)

40001520 <error_msg.1560>:
40001520:	6148                	flw	fa0,4(a0)
40001522:	6174                	flw	fa3,68(a0)
40001524:	0a21                	addi	s4,s4,8
	...

Disassembly of section .bss:

40001528 <stack>:
	...

40021530 <indexes>:
	...

Disassembly of section .comment:

00000000 <_tbss_end>:
   0:	3a434347          	fmsub.d	ft6,ft6,ft4,ft7,rmm
   4:	2820                	fld	fs0,80(s0)
   6:	29554e47          	fmsub.s	ft8,fa0,fs5,ft5,rmm
   a:	3920                	fld	fs0,112(a0)
   c:	322e                	fld	ft4,232(sp)
   e:	302e                	fld	ft0,232(sp)
	...

Disassembly of section .riscv.attributes:

00000000 <.riscv.attributes>:
   0:	2541                	jal	680 <_tbss_end+0x680>
   2:	0000                	unimp
   4:	7200                	flw	fs0,32(a2)
   6:	7369                	lui	t1,0xffffa
   8:	01007663          	bgeu	zero,a6,14 <_tbss_end+0x14>
   c:	0000001b          	0x1b
  10:	1004                	addi	s1,sp,32
  12:	7205                	lui	tp,0xfffe1
  14:	3376                	fld	ft6,376(sp)
  16:	6932                	flw	fs2,12(sp)
  18:	7032                	flw	ft0,44(sp)
  1a:	5f30                	lw	a2,120(a4)
  1c:	326d                	jal	fffff9c6 <_end+0xbffbe496>
  1e:	3070                	fld	fa2,224(s0)
  20:	635f 7032 0030      	0x307032635f
