
game.riscv:     file format elf32-littleriscv


Disassembly of section .text.init:

40000000 <_start>:
40000000:	4081                	li	ra,0
40000002:	4101                	li	sp,0
40000004:	4181                	li	gp,0
40000006:	4201                	li	tp,0
40000008:	4281                	li	t0,0
4000000a:	4301                	li	t1,0
4000000c:	4381                	li	t2,0
4000000e:	4401                	li	s0,0
40000010:	4481                	li	s1,0
40000012:	4501                	li	a0,0
40000014:	4581                	li	a1,0
40000016:	4601                	li	a2,0
40000018:	4681                	li	a3,0
4000001a:	4701                	li	a4,0
4000001c:	4781                	li	a5,0
4000001e:	4801                	li	a6,0
40000020:	4881                	li	a7,0
40000022:	4901                	li	s2,0
40000024:	4981                	li	s3,0
40000026:	4a01                	li	s4,0
40000028:	4a81                	li	s5,0
4000002a:	4b01                	li	s6,0
4000002c:	4b81                	li	s7,0
4000002e:	4c01                	li	s8,0
40000030:	4c81                	li	s9,0
40000032:	4d01                	li	s10,0
40000034:	4d81                	li	s11,0
40000036:	4e01                	li	t3,0
40000038:	4e81                	li	t4,0
4000003a:	4f01                	li	t5,0
4000003c:	4f81                	li	t6,0
4000003e:	62f9                	lui	t0,0x1e
40000040:	3002a073          	csrs	mstatus,t0
40000044:	4285                	li	t0,1
40000046:	02fe                	slli	t0,t0,0x1f
40000048:	0002c863          	bltz	t0,40000058 <_start+0x58>
4000004c:	4505                	li	a0,1
4000004e:	00001297          	auipc	t0,0x1
40000052:	b2a2a923          	sw	a0,-1230(t0) # 40000b80 <tohost>
40000056:	bfdd                	j	4000004c <_start+0x4c>
40000058:	00000297          	auipc	t0,0x0
4000005c:	03028293          	addi	t0,t0,48 # 40000088 <trap_entry>
40000060:	30529073          	csrw	mtvec,t0
40000064:	00001197          	auipc	gp,0x1
40000068:	36418193          	addi	gp,gp,868 # 400013c8 <__global_pointer$>
4000006c:	ee318213          	addi	tp,gp,-285 # 400012ab <_end+0x3f>
40000070:	fc027213          	andi	tp,tp,-64
40000074:	f1402573          	csrr	a0,mhartid
40000078:	4585                	li	a1,1
4000007a:	00b57063          	bgeu	a0,a1,4000007a <_start+0x7a>
4000007e:	40020137          	lui	sp,0x40020
40000082:	0150006f          	j	40000896 <main>
40000086:	0001                	nop

40000088 <trap_entry>:
40000088:	716d                	addi	sp,sp,-272
4000008a:	c206                	sw	ra,4(sp)
4000008c:	c40a                	sw	sp,8(sp)
4000008e:	c60e                	sw	gp,12(sp)
40000090:	c812                	sw	tp,16(sp)
40000092:	ca16                	sw	t0,20(sp)
40000094:	cc1a                	sw	t1,24(sp)
40000096:	ce1e                	sw	t2,28(sp)
40000098:	d022                	sw	s0,32(sp)
4000009a:	d226                	sw	s1,36(sp)
4000009c:	d42a                	sw	a0,40(sp)
4000009e:	d62e                	sw	a1,44(sp)
400000a0:	d832                	sw	a2,48(sp)
400000a2:	da36                	sw	a3,52(sp)
400000a4:	dc3a                	sw	a4,56(sp)
400000a6:	de3e                	sw	a5,60(sp)
400000a8:	c0c2                	sw	a6,64(sp)
400000aa:	c2c6                	sw	a7,68(sp)
400000ac:	c4ca                	sw	s2,72(sp)
400000ae:	c6ce                	sw	s3,76(sp)
400000b0:	c8d2                	sw	s4,80(sp)
400000b2:	cad6                	sw	s5,84(sp)
400000b4:	ccda                	sw	s6,88(sp)
400000b6:	cede                	sw	s7,92(sp)
400000b8:	d0e2                	sw	s8,96(sp)
400000ba:	d2e6                	sw	s9,100(sp)
400000bc:	d4ea                	sw	s10,104(sp)
400000be:	d6ee                	sw	s11,108(sp)
400000c0:	d8f2                	sw	t3,112(sp)
400000c2:	daf6                	sw	t4,116(sp)
400000c4:	dcfa                	sw	t5,120(sp)
400000c6:	defe                	sw	t6,124(sp)
400000c8:	34202573          	csrr	a0,mcause
400000cc:	341025f3          	csrr	a1,mepc
400000d0:	860a                	mv	a2,sp
400000d2:	178000ef          	jal	ra,4000024a <handle_trap>
400000d6:	34151073          	csrw	mepc,a0
400000da:	000022b7          	lui	t0,0x2
400000de:	80028293          	addi	t0,t0,-2048 # 1800 <_tbss_end+0x1800>
400000e2:	3002a073          	csrs	mstatus,t0
400000e6:	4092                	lw	ra,4(sp)
400000e8:	4122                	lw	sp,8(sp)
400000ea:	41b2                	lw	gp,12(sp)
400000ec:	4242                	lw	tp,16(sp)
400000ee:	42d2                	lw	t0,20(sp)
400000f0:	4362                	lw	t1,24(sp)
400000f2:	43f2                	lw	t2,28(sp)
400000f4:	5402                	lw	s0,32(sp)
400000f6:	5492                	lw	s1,36(sp)
400000f8:	5522                	lw	a0,40(sp)
400000fa:	55b2                	lw	a1,44(sp)
400000fc:	5642                	lw	a2,48(sp)
400000fe:	56d2                	lw	a3,52(sp)
40000100:	5762                	lw	a4,56(sp)
40000102:	57f2                	lw	a5,60(sp)
40000104:	4806                	lw	a6,64(sp)
40000106:	4896                	lw	a7,68(sp)
40000108:	4926                	lw	s2,72(sp)
4000010a:	49b6                	lw	s3,76(sp)
4000010c:	4a46                	lw	s4,80(sp)
4000010e:	4ad6                	lw	s5,84(sp)
40000110:	4b66                	lw	s6,88(sp)
40000112:	4bf6                	lw	s7,92(sp)
40000114:	5c06                	lw	s8,96(sp)
40000116:	5c96                	lw	s9,100(sp)
40000118:	5d26                	lw	s10,104(sp)
4000011a:	5db6                	lw	s11,108(sp)
4000011c:	5e46                	lw	t3,112(sp)
4000011e:	5ed6                	lw	t4,116(sp)
40000120:	5f66                	lw	t5,120(sp)
40000122:	5ff6                	lw	t6,124(sp)
40000124:	6151                	addi	sp,sp,272
40000126:	30200073          	mret
	...

Disassembly of section .text:

4000012c <getTime>:
4000012c:	300007b7          	lui	a5,0x30000
40000130:	4388                	lw	a0,0(a5)
40000132:	8082                	ret

40000134 <clearInputBuffer>:
40000134:	1141                	addi	sp,sp,-16
40000136:	c606                	sw	ra,12(sp)
40000138:	a011                	j	4000013c <clearInputBuffer+0x8>
4000013a:	2a6d                	jal	400002f4 <uart_read>
4000013c:	2a69                	jal	400002d6 <uart_rx_empty>
4000013e:	dd75                	beqz	a0,4000013a <clearInputBuffer+0x6>
40000140:	40b2                	lw	ra,12(sp)
40000142:	0141                	addi	sp,sp,16
40000144:	8082                	ret

40000146 <getLastInput>:
40000146:	1141                	addi	sp,sp,-16
40000148:	c422                	sw	s0,8(sp)
4000014a:	c606                	sw	ra,12(sp)
4000014c:	4401                	li	s0,0
4000014e:	a019                	j	40000154 <getLastInput+0xe>
40000150:	2255                	jal	400002f4 <uart_read>
40000152:	842a                	mv	s0,a0
40000154:	2249                	jal	400002d6 <uart_rx_empty>
40000156:	dd6d                	beqz	a0,40000150 <getLastInput+0xa>
40000158:	40b2                	lw	ra,12(sp)
4000015a:	8522                	mv	a0,s0
4000015c:	4422                	lw	s0,8(sp)
4000015e:	0141                	addi	sp,sp,16
40000160:	8082                	ret

40000162 <sendScreenBuffer>:
40000162:	1141                	addi	sp,sp,-16
40000164:	c422                	sw	s0,8(sp)
40000166:	c226                	sw	s1,4(sp)
40000168:	c606                	sw	ra,12(sp)
4000016a:	84018413          	addi	s0,gp,-1984 # 40000c08 <screenBuffer>
4000016e:	e8018493          	addi	s1,gp,-384 # 40001248 <screenBuffer+0x640>
40000172:	00044503          	lbu	a0,0(s0)
40000176:	0405                	addi	s0,s0,1
40000178:	22ad                	jal	400002e2 <uart_write>
4000017a:	fe941ce3          	bne	s0,s1,40000172 <sendScreenBuffer+0x10>
4000017e:	4422                	lw	s0,8(sp)
40000180:	40b2                	lw	ra,12(sp)
40000182:	4492                	lw	s1,4(sp)
40000184:	4505                	li	a0,1
40000186:	0141                	addi	sp,sp,16
40000188:	aaa9                	j	400002e2 <uart_write>

4000018a <uart_read_timeout>:
4000018a:	00b567b3          	or	a5,a0,a1
4000018e:	c7b9                	beqz	a5,400001dc <uart_read_timeout+0x52>
40000190:	1101                	addi	sp,sp,-32
40000192:	cc22                	sw	s0,24(sp)
40000194:	ca26                	sw	s1,20(sp)
40000196:	c84a                	sw	s2,16(sp)
40000198:	c64e                	sw	s3,12(sp)
4000019a:	ce06                	sw	ra,28(sp)
4000019c:	892a                	mv	s2,a0
4000019e:	89ae                	mv	s3,a1
400001a0:	4401                	li	s0,0
400001a2:	4481                	li	s1,0
400001a4:	a021                	j	400001ac <uart_read_timeout+0x22>
400001a6:	94ba                	add	s1,s1,a4
400001a8:	02f90063          	beq	s2,a5,400001c8 <uart_read_timeout+0x3e>
400001ac:	222d                	jal	400002d6 <uart_rx_empty>
400001ae:	00140793          	addi	a5,s0,1
400001b2:	0087b733          	sltu	a4,a5,s0
400001b6:	843e                	mv	s0,a5
400001b8:	f57d                	bnez	a0,400001a6 <uart_read_timeout+0x1c>
400001ba:	4462                	lw	s0,24(sp)
400001bc:	40f2                	lw	ra,28(sp)
400001be:	44d2                	lw	s1,20(sp)
400001c0:	4942                	lw	s2,16(sp)
400001c2:	49b2                	lw	s3,12(sp)
400001c4:	6105                	addi	sp,sp,32
400001c6:	a23d                	j	400002f4 <uart_read>
400001c8:	fe9992e3          	bne	s3,s1,400001ac <uart_read_timeout+0x22>
400001cc:	40f2                	lw	ra,28(sp)
400001ce:	4462                	lw	s0,24(sp)
400001d0:	44d2                	lw	s1,20(sp)
400001d2:	4942                	lw	s2,16(sp)
400001d4:	49b2                	lw	s3,12(sp)
400001d6:	4501                	li	a0,0
400001d8:	6105                	addi	sp,sp,32
400001da:	8082                	ret
400001dc:	4501                	li	a0,0
400001de:	8082                	ret

400001e0 <secs_to_ticks>:
400001e0:	3b9ad7b7          	lui	a5,0x3b9ad
400001e4:	a0078793          	addi	a5,a5,-1536 # 3b9aca00 <_tbss_end+0x3b9aca00>
400001e8:	02f53733          	mulhu	a4,a0,a5
400001ec:	05f5e637          	lui	a2,0x5f5e
400001f0:	1141                	addi	sp,sp,-16
400001f2:	10060613          	addi	a2,a2,256 # 5f5e100 <_tbss_end+0x5f5e100>
400001f6:	4681                	li	a3,0
400001f8:	c606                	sw	ra,12(sp)
400001fa:	02f585b3          	mul	a1,a1,a5
400001fe:	02f50533          	mul	a0,a0,a5
40000202:	95ba                	add	a1,a1,a4
40000204:	2db5                	jal	40000880 <__udivdi3>
40000206:	40b2                	lw	ra,12(sp)
40000208:	0141                	addi	sp,sp,16
4000020a:	8082                	ret

4000020c <drawFromWorld>:
4000020c:	00350713          	addi	a4,a0,3
40000210:	0a200793          	li	a5,162
40000214:	02e7ea63          	bltu	a5,a4,40000248 <drawFromWorld+0x3c>
40000218:	00358713          	addi	a4,a1,3
4000021c:	02e7e663          	bltu	a5,a4,40000248 <drawFromWorld+0x3c>
40000220:	41f5d793          	srai	a5,a1,0x1f
40000224:	8b8d                	andi	a5,a5,3
40000226:	95be                	add	a1,a1,a5
40000228:	4025d713          	srai	a4,a1,0x2
4000022c:	41f55793          	srai	a5,a0,0x1f
40000230:	99f1                	andi	a1,a1,-4
40000232:	8b8d                	andi	a5,a5,3
40000234:	95ba                	add	a1,a1,a4
40000236:	953e                	add	a0,a0,a5
40000238:	058e                	slli	a1,a1,0x3
4000023a:	84018793          	addi	a5,gp,-1984 # 40000c08 <screenBuffer>
4000023e:	8509                	srai	a0,a0,0x2
40000240:	95be                	add	a1,a1,a5
40000242:	952e                	add	a0,a0,a1
40000244:	00c50023          	sb	a2,0(a0)
40000248:	8082                	ret

4000024a <handle_trap>:
4000024a:	8101c683          	lbu	a3,-2032(gp) # 40000bd8 <error_msg.1583>
4000024e:	ce99                	beqz	a3,4000026c <handle_trap+0x22>
40000250:	8201a703          	lw	a4,-2016(gp) # 40000be8 <UART_STATUS>
40000254:	8181a583          	lw	a1,-2024(gp) # 40000be0 <UART_WRITE>
40000258:	81118613          	addi	a2,gp,-2031 # 40000bd9 <error_msg.1583+0x1>
4000025c:	431c                	lw	a5,0(a4)
4000025e:	8b85                	andi	a5,a5,1
40000260:	fff5                	bnez	a5,4000025c <handle_trap+0x12>
40000262:	c194                	sw	a3,0(a1)
40000264:	00064683          	lbu	a3,0(a2)
40000268:	0605                	addi	a2,a2,1
4000026a:	faed                	bnez	a3,4000025c <handle_trap+0x12>
4000026c:	8082                	ret

4000026e <kasirga_random>:
4000026e:	2c9277b7          	lui	a5,0x2c927
40000272:	7b578793          	addi	a5,a5,1973 # 2c9277b5 <_tbss_end+0x2c9277b5>
40000276:	02f50533          	mul	a0,a0,a5
4000027a:	ac5657b7          	lui	a5,0xac565
4000027e:	b0578793          	addi	a5,a5,-1275 # ac564b05 <__global_pointer$+0x6c56373d>
40000282:	953e                	add	a0,a0,a5
40000284:	01c55793          	srli	a5,a0,0x1c
40000288:	0791                	addi	a5,a5,4
4000028a:	00f557b3          	srl	a5,a0,a5
4000028e:	8fa9                	xor	a5,a5,a0
40000290:	108ef537          	lui	a0,0x108ef
40000294:	2d950513          	addi	a0,a0,729 # 108ef2d9 <_tbss_end+0x108ef2d9>
40000298:	02a787b3          	mul	a5,a5,a0
4000029c:	0167d513          	srli	a0,a5,0x16
400002a0:	8d3d                	xor	a0,a0,a5
400002a2:	8082                	ret

400002a4 <uart_set_ctrl>:
400002a4:	0586                	slli	a1,a1,0x1
400002a6:	8dd1                	or	a1,a1,a2
400002a8:	0542                	slli	a0,a0,0x10
400002aa:	8dc9                	or	a1,a1,a0
400002ac:	8241a783          	lw	a5,-2012(gp) # 40000bec <UART_CONTROL>
400002b0:	c38c                	sw	a1,0(a5)
400002b2:	8082                	ret

400002b4 <uart_tx_full>:
400002b4:	8201a783          	lw	a5,-2016(gp) # 40000be8 <UART_STATUS>
400002b8:	4388                	lw	a0,0(a5)
400002ba:	8905                	andi	a0,a0,1
400002bc:	8082                	ret

400002be <uart_rx_full>:
400002be:	8201a783          	lw	a5,-2016(gp) # 40000be8 <UART_STATUS>
400002c2:	4388                	lw	a0,0(a5)
400002c4:	8109                	srli	a0,a0,0x2
400002c6:	8905                	andi	a0,a0,1
400002c8:	8082                	ret

400002ca <uart_tx_empty>:
400002ca:	8201a783          	lw	a5,-2016(gp) # 40000be8 <UART_STATUS>
400002ce:	4388                	lw	a0,0(a5)
400002d0:	8105                	srli	a0,a0,0x1
400002d2:	8905                	andi	a0,a0,1
400002d4:	8082                	ret

400002d6 <uart_rx_empty>:
400002d6:	8201a783          	lw	a5,-2016(gp) # 40000be8 <UART_STATUS>
400002da:	4388                	lw	a0,0(a5)
400002dc:	810d                	srli	a0,a0,0x3
400002de:	8905                	andi	a0,a0,1
400002e0:	8082                	ret

400002e2 <uart_write>:
400002e2:	8201a703          	lw	a4,-2016(gp) # 40000be8 <UART_STATUS>
400002e6:	431c                	lw	a5,0(a4)
400002e8:	8b85                	andi	a5,a5,1
400002ea:	fff5                	bnez	a5,400002e6 <uart_write+0x4>
400002ec:	8181a783          	lw	a5,-2024(gp) # 40000be0 <UART_WRITE>
400002f0:	c388                	sw	a0,0(a5)
400002f2:	8082                	ret

400002f4 <uart_read>:
400002f4:	8201a703          	lw	a4,-2016(gp) # 40000be8 <UART_STATUS>
400002f8:	431c                	lw	a5,0(a4)
400002fa:	8ba1                	andi	a5,a5,8
400002fc:	fff5                	bnez	a5,400002f8 <uart_read+0x4>
400002fe:	81c1a783          	lw	a5,-2020(gp) # 40000be4 <UART_READ>
40000302:	4388                	lw	a0,0(a5)
40000304:	0ff57513          	andi	a0,a0,255
40000308:	8082                	ret

4000030a <uart_print>:
4000030a:	00054603          	lbu	a2,0(a0)
4000030e:	ce19                	beqz	a2,4000032c <uart_print+0x22>
40000310:	8201a703          	lw	a4,-2016(gp) # 40000be8 <UART_STATUS>
40000314:	8181a583          	lw	a1,-2024(gp) # 40000be0 <UART_WRITE>
40000318:	00150693          	addi	a3,a0,1
4000031c:	431c                	lw	a5,0(a4)
4000031e:	8b85                	andi	a5,a5,1
40000320:	fff5                	bnez	a5,4000031c <uart_print+0x12>
40000322:	c190                	sw	a2,0(a1)
40000324:	0006c603          	lbu	a2,0(a3)
40000328:	0685                	addi	a3,a3,1
4000032a:	fa6d                	bnez	a2,4000031c <uart_print+0x12>
4000032c:	8082                	ret

4000032e <__absvdi2>:
4000032e:	41f5d793          	srai	a5,a1,0x1f
40000332:	8fa9                	xor	a5,a5,a0
40000334:	01f5d513          	srli	a0,a1,0x1f
40000338:	953e                	add	a0,a0,a5
4000033a:	41f5d713          	srai	a4,a1,0x1f
4000033e:	8db9                	xor	a1,a1,a4
40000340:	00f537b3          	sltu	a5,a0,a5
40000344:	95be                	add	a1,a1,a5
40000346:	8082                	ret

40000348 <__ashldi3>:
40000348:	02067713          	andi	a4,a2,32
4000034c:	87aa                	mv	a5,a0
4000034e:	03f67613          	andi	a2,a2,63
40000352:	c711                	beqz	a4,4000035e <__ashldi3+0x16>
40000354:	1601                	addi	a2,a2,-32
40000356:	4501                	li	a0,0
40000358:	00c795b3          	sll	a1,a5,a2
4000035c:	8082                	ret
4000035e:	ce01                	beqz	a2,40000376 <__ashldi3+0x2e>
40000360:	02000713          	li	a4,32
40000364:	8f11                	sub	a4,a4,a2
40000366:	00e55733          	srl	a4,a0,a4
4000036a:	00c595b3          	sll	a1,a1,a2
4000036e:	00c51533          	sll	a0,a0,a2
40000372:	8dd9                	or	a1,a1,a4
40000374:	8082                	ret
40000376:	8082                	ret

40000378 <__ashrdi3>:
40000378:	02067793          	andi	a5,a2,32
4000037c:	03f67613          	andi	a2,a2,63
40000380:	c799                	beqz	a5,4000038e <__ashrdi3+0x16>
40000382:	fe060513          	addi	a0,a2,-32
40000386:	40a5d533          	sra	a0,a1,a0
4000038a:	85fd                	srai	a1,a1,0x1f
4000038c:	8082                	ret
4000038e:	ca19                	beqz	a2,400003a4 <__ashrdi3+0x2c>
40000390:	02000793          	li	a5,32
40000394:	8f91                	sub	a5,a5,a2
40000396:	00f597b3          	sll	a5,a1,a5
4000039a:	00c55533          	srl	a0,a0,a2
4000039e:	8d5d                	or	a0,a0,a5
400003a0:	40c5d5b3          	sra	a1,a1,a2
400003a4:	8082                	ret

400003a6 <__clzsi2>:
400003a6:	7741                	lui	a4,0xffff0
400003a8:	8f69                	and	a4,a4,a0
400003aa:	4781                	li	a5,0
400003ac:	e319                	bnez	a4,400003b2 <__clzsi2+0xc>
400003ae:	0542                	slli	a0,a0,0x10
400003b0:	47c1                	li	a5,16
400003b2:	ff000737          	lui	a4,0xff000
400003b6:	8f69                	and	a4,a4,a0
400003b8:	e319                	bnez	a4,400003be <__clzsi2+0x18>
400003ba:	07a1                	addi	a5,a5,8
400003bc:	0522                	slli	a0,a0,0x8
400003be:	f0000737          	lui	a4,0xf0000
400003c2:	8f69                	and	a4,a4,a0
400003c4:	e319                	bnez	a4,400003ca <__clzsi2+0x24>
400003c6:	0791                	addi	a5,a5,4
400003c8:	0512                	slli	a0,a0,0x4
400003ca:	c0000737          	lui	a4,0xc0000
400003ce:	8f69                	and	a4,a4,a0
400003d0:	e319                	bnez	a4,400003d6 <__clzsi2+0x30>
400003d2:	0789                	addi	a5,a5,2
400003d4:	050a                	slli	a0,a0,0x2
400003d6:	fff54513          	not	a0,a0
400003da:	817d                	srli	a0,a0,0x1f
400003dc:	953e                	add	a0,a0,a5
400003de:	8082                	ret

400003e0 <__clzdi2>:
400003e0:	4701                	li	a4,0
400003e2:	e589                	bnez	a1,400003ec <__clzdi2+0xc>
400003e4:	85aa                	mv	a1,a0
400003e6:	02000713          	li	a4,32
400003ea:	4501                	li	a0,0
400003ec:	77c1                	lui	a5,0xffff0
400003ee:	8fed                	and	a5,a5,a1
400003f0:	eb89                	bnez	a5,40000402 <__clzdi2+0x22>
400003f2:	01055693          	srli	a3,a0,0x10
400003f6:	01059793          	slli	a5,a1,0x10
400003fa:	0741                	addi	a4,a4,16
400003fc:	00f6e5b3          	or	a1,a3,a5
40000400:	0542                	slli	a0,a0,0x10
40000402:	ff0007b7          	lui	a5,0xff000
40000406:	8fed                	and	a5,a5,a1
40000408:	eb89                	bnez	a5,4000041a <__clzdi2+0x3a>
4000040a:	01855693          	srli	a3,a0,0x18
4000040e:	00859793          	slli	a5,a1,0x8
40000412:	0721                	addi	a4,a4,8
40000414:	00f6e5b3          	or	a1,a3,a5
40000418:	0522                	slli	a0,a0,0x8
4000041a:	f00007b7          	lui	a5,0xf0000
4000041e:	8fed                	and	a5,a5,a1
40000420:	eb89                	bnez	a5,40000432 <__clzdi2+0x52>
40000422:	01c55693          	srli	a3,a0,0x1c
40000426:	00459793          	slli	a5,a1,0x4
4000042a:	0711                	addi	a4,a4,4
4000042c:	00f6e5b3          	or	a1,a3,a5
40000430:	0512                	slli	a0,a0,0x4
40000432:	c00007b7          	lui	a5,0xc0000
40000436:	8fed                	and	a5,a5,a1
40000438:	e791                	bnez	a5,40000444 <__clzdi2+0x64>
4000043a:	01e55793          	srli	a5,a0,0x1e
4000043e:	058a                	slli	a1,a1,0x2
40000440:	0709                	addi	a4,a4,2
40000442:	8ddd                	or	a1,a1,a5
40000444:	fff5c593          	not	a1,a1
40000448:	81fd                	srli	a1,a1,0x1f
4000044a:	00e58533          	add	a0,a1,a4
4000044e:	8082                	ret

40000450 <__ctzsi2>:
40000450:	01051713          	slli	a4,a0,0x10
40000454:	8341                	srli	a4,a4,0x10
40000456:	4781                	li	a5,0
40000458:	e319                	bnez	a4,4000045e <__ctzsi2+0xe>
4000045a:	8141                	srli	a0,a0,0x10
4000045c:	47c1                	li	a5,16
4000045e:	0ff57713          	andi	a4,a0,255
40000462:	e319                	bnez	a4,40000468 <__ctzsi2+0x18>
40000464:	07a1                	addi	a5,a5,8
40000466:	8121                	srli	a0,a0,0x8
40000468:	00f57713          	andi	a4,a0,15
4000046c:	e319                	bnez	a4,40000472 <__ctzsi2+0x22>
4000046e:	0791                	addi	a5,a5,4
40000470:	8111                	srli	a0,a0,0x4
40000472:	00357713          	andi	a4,a0,3
40000476:	e319                	bnez	a4,4000047c <__ctzsi2+0x2c>
40000478:	0789                	addi	a5,a5,2
4000047a:	8109                	srli	a0,a0,0x2
4000047c:	fff54513          	not	a0,a0
40000480:	8905                	andi	a0,a0,1
40000482:	953e                	add	a0,a0,a5
40000484:	8082                	ret

40000486 <__ctzdi2>:
40000486:	4781                	li	a5,0
40000488:	e509                	bnez	a0,40000492 <__ctzdi2+0xc>
4000048a:	852e                	mv	a0,a1
4000048c:	02000793          	li	a5,32
40000490:	4581                	li	a1,0
40000492:	01051713          	slli	a4,a0,0x10
40000496:	8341                	srli	a4,a4,0x10
40000498:	e719                	bnez	a4,400004a6 <__ctzdi2+0x20>
4000049a:	01059713          	slli	a4,a1,0x10
4000049e:	8141                	srli	a0,a0,0x10
400004a0:	07c1                	addi	a5,a5,16
400004a2:	8d59                	or	a0,a0,a4
400004a4:	81c1                	srli	a1,a1,0x10
400004a6:	0ff57713          	andi	a4,a0,255
400004aa:	e719                	bnez	a4,400004b8 <__ctzdi2+0x32>
400004ac:	01859713          	slli	a4,a1,0x18
400004b0:	8121                	srli	a0,a0,0x8
400004b2:	07a1                	addi	a5,a5,8
400004b4:	8d59                	or	a0,a0,a4
400004b6:	81a1                	srli	a1,a1,0x8
400004b8:	00f57713          	andi	a4,a0,15
400004bc:	e719                	bnez	a4,400004ca <__ctzdi2+0x44>
400004be:	01c59713          	slli	a4,a1,0x1c
400004c2:	8111                	srli	a0,a0,0x4
400004c4:	0791                	addi	a5,a5,4
400004c6:	8d59                	or	a0,a0,a4
400004c8:	8191                	srli	a1,a1,0x4
400004ca:	00357713          	andi	a4,a0,3
400004ce:	e709                	bnez	a4,400004d8 <__ctzdi2+0x52>
400004d0:	05fa                	slli	a1,a1,0x1e
400004d2:	8109                	srli	a0,a0,0x2
400004d4:	0789                	addi	a5,a5,2
400004d6:	8d4d                	or	a0,a0,a1
400004d8:	fff54513          	not	a0,a0
400004dc:	8905                	andi	a0,a0,1
400004de:	953e                	add	a0,a0,a5
400004e0:	8082                	ret

400004e2 <__divmoddi4>:
400004e2:	7179                	addi	sp,sp,-48
400004e4:	d422                	sw	s0,40(sp)
400004e6:	d04a                	sw	s2,32(sp)
400004e8:	ca56                	sw	s5,20(sp)
400004ea:	d606                	sw	ra,44(sp)
400004ec:	d226                	sw	s1,36(sp)
400004ee:	ce4e                	sw	s3,28(sp)
400004f0:	cc52                	sw	s4,24(sp)
400004f2:	8aae                	mv	s5,a1
400004f4:	842a                	mv	s0,a0
400004f6:	893a                	mv	s2,a4
400004f8:	12d5e363          	bltu	a1,a3,4000061e <__divmoddi4+0x13c>
400004fc:	84b6                	mv	s1,a3
400004fe:	89b2                	mv	s3,a2
40000500:	10b68d63          	beq	a3,a1,4000061a <__divmoddi4+0x138>
40000504:	e895                	bnez	s1,40000538 <__divmoddi4+0x56>
40000506:	16099463          	bnez	s3,4000066e <__divmoddi4+0x18c>
4000050a:	000107a3          	sb	zero,15(sp) # 4002000f <__global_pointer$+0x1ec47>
4000050e:	00f14703          	lbu	a4,15(sp)
40000512:	4785                	li	a5,1
40000514:	02e7c7b3          	div	a5,a5,a4
40000518:	00f107a3          	sb	a5,15(sp)
4000051c:	000a9e63          	bnez	s5,40000538 <__divmoddi4+0x56>
40000520:	00090863          	beqz	s2,40000530 <__divmoddi4+0x4e>
40000524:	033477b3          	remu	a5,s0,s3
40000528:	00092223          	sw	zero,4(s2)
4000052c:	00f92023          	sw	a5,0(s2)
40000530:	03345533          	divu	a0,s0,s3
40000534:	4581                	li	a1,0
40000536:	a8c9                	j	40000608 <__divmoddi4+0x126>
40000538:	85a6                	mv	a1,s1
4000053a:	854e                	mv	a0,s3
4000053c:	3555                	jal	400003e0 <__clzdi2>
4000053e:	8a2a                	mv	s4,a0
40000540:	85d6                	mv	a1,s5
40000542:	8522                	mv	a0,s0
40000544:	3d71                	jal	400003e0 <__clzdi2>
40000546:	0a05                	addi	s4,s4,1
40000548:	40aa0a33          	sub	s4,s4,a0
4000054c:	0ffa7513          	andi	a0,s4,255
40000550:	fe050793          	addi	a5,a0,-32
40000554:	0c07ce63          	bltz	a5,40000630 <__divmoddi4+0x14e>
40000558:	04000713          	li	a4,64
4000055c:	8f09                	sub	a4,a4,a0
4000055e:	fe070313          	addi	t1,a4,-32 # bfffffe0 <__global_pointer$+0x7fffec18>
40000562:	00fad7b3          	srl	a5,s5,a5
40000566:	4881                	li	a7,0
40000568:	0e034663          	bltz	t1,40000654 <__divmoddi4+0x172>
4000056c:	00641333          	sll	t1,s0,t1
40000570:	4401                	li	s0,0
40000572:	fff50e13          	addi	t3,a0,-1
40000576:	0ffe7e13          	andi	t3,t3,255
4000057a:	10050b63          	beqz	a0,40000690 <__divmoddi4+0x1ae>
4000057e:	0019b693          	seqz	a3,s3
40000582:	fff98f13          	addi	t5,s3,-1
40000586:	40d486b3          	sub	a3,s1,a3
4000058a:	4e81                	li	t4,0
4000058c:	0ff00613          	li	a2,255
40000590:	00179713          	slli	a4,a5,0x1
40000594:	01f35813          	srli	a6,t1,0x1f
40000598:	00e86833          	or	a6,a6,a4
4000059c:	83fd                	srli	a5,a5,0x1f
4000059e:	0886                	slli	a7,a7,0x1
400005a0:	0117e8b3          	or	a7,a5,a7
400005a4:	410f07b3          	sub	a5,t5,a6
400005a8:	00ff35b3          	sltu	a1,t5,a5
400005ac:	411687b3          	sub	a5,a3,a7
400005b0:	8f8d                	sub	a5,a5,a1
400005b2:	001ef713          	andi	a4,t4,1
400005b6:	41f7de93          	srai	t4,a5,0x1f
400005ba:	01d9f7b3          	and	a5,s3,t4
400005be:	40f807b3          	sub	a5,a6,a5
400005c2:	01d4f533          	and	a0,s1,t4
400005c6:	1e7d                	addi	t3,t3,-1
400005c8:	01f45593          	srli	a1,s0,0x1f
400005cc:	0306                	slli	t1,t1,0x1
400005ce:	0406                	slli	s0,s0,0x1
400005d0:	00f83833          	sltu	a6,a6,a5
400005d4:	40a888b3          	sub	a7,a7,a0
400005d8:	0ffe7e13          	andi	t3,t3,255
400005dc:	8c59                	or	s0,s0,a4
400005de:	0065e333          	or	t1,a1,t1
400005e2:	410888b3          	sub	a7,a7,a6
400005e6:	face15e3          	bne	t3,a2,40000590 <__divmoddi4+0xae>
400005ea:	001ef513          	andi	a0,t4,1
400005ee:	00090663          	beqz	s2,400005fa <__divmoddi4+0x118>
400005f2:	00f92023          	sw	a5,0(s2)
400005f6:	01192223          	sw	a7,4(s2)
400005fa:	01f45593          	srli	a1,s0,0x1f
400005fe:	0306                	slli	t1,t1,0x1
40000600:	0406                	slli	s0,s0,0x1
40000602:	8d41                	or	a0,a0,s0
40000604:	0065e5b3          	or	a1,a1,t1
40000608:	50b2                	lw	ra,44(sp)
4000060a:	5422                	lw	s0,40(sp)
4000060c:	5492                	lw	s1,36(sp)
4000060e:	5902                	lw	s2,32(sp)
40000610:	49f2                	lw	s3,28(sp)
40000612:	4a62                	lw	s4,24(sp)
40000614:	4ad2                	lw	s5,20(sp)
40000616:	6145                	addi	sp,sp,48
40000618:	8082                	ret
4000061a:	eec575e3          	bgeu	a0,a2,40000504 <__divmoddi4+0x22>
4000061e:	06090663          	beqz	s2,4000068a <__divmoddi4+0x1a8>
40000622:	00892023          	sw	s0,0(s2)
40000626:	01592223          	sw	s5,4(s2)
4000062a:	4501                	li	a0,0
4000062c:	4581                	li	a1,0
4000062e:	bfe9                	j	40000608 <__divmoddi4+0x126>
40000630:	47fd                	li	a5,31
40000632:	8f89                	sub	a5,a5,a0
40000634:	001a9713          	slli	a4,s5,0x1
40000638:	00f71733          	sll	a4,a4,a5
4000063c:	00a457b3          	srl	a5,s0,a0
40000640:	8fd9                	or	a5,a5,a4
40000642:	04000713          	li	a4,64
40000646:	8f09                	sub	a4,a4,a0
40000648:	fe070313          	addi	t1,a4,-32
4000064c:	00aad8b3          	srl	a7,s5,a0
40000650:	f0035ee3          	bgez	t1,4000056c <__divmoddi4+0x8a>
40000654:	467d                	li	a2,31
40000656:	00145693          	srli	a3,s0,0x1
4000065a:	8e19                	sub	a2,a2,a4
4000065c:	00c6d6b3          	srl	a3,a3,a2
40000660:	00ea9333          	sll	t1,s5,a4
40000664:	0066e333          	or	t1,a3,t1
40000668:	00e41433          	sll	s0,s0,a4
4000066c:	b719                	j	40000572 <__divmoddi4+0x90>
4000066e:	4785                	li	a5,1
40000670:	eaf996e3          	bne	s3,a5,4000051c <__divmoddi4+0x3a>
40000674:	02090063          	beqz	s2,40000694 <__divmoddi4+0x1b2>
40000678:	4781                	li	a5,0
4000067a:	4801                	li	a6,0
4000067c:	00f92023          	sw	a5,0(s2)
40000680:	01092223          	sw	a6,4(s2)
40000684:	8522                	mv	a0,s0
40000686:	85d6                	mv	a1,s5
40000688:	b741                	j	40000608 <__divmoddi4+0x126>
4000068a:	4501                	li	a0,0
4000068c:	4581                	li	a1,0
4000068e:	bfad                	j	40000608 <__divmoddi4+0x126>
40000690:	4501                	li	a0,0
40000692:	bfb1                	j	400005ee <__divmoddi4+0x10c>
40000694:	8522                	mv	a0,s0
40000696:	85d6                	mv	a1,s5
40000698:	bf85                	j	40000608 <__divmoddi4+0x126>

4000069a <__divdi3>:
4000069a:	41f6d713          	srai	a4,a3,0x1f
4000069e:	41f5d793          	srai	a5,a1,0x1f
400006a2:	1141                	addi	sp,sp,-16
400006a4:	8f31                	xor	a4,a4,a2
400006a6:	8fa9                	xor	a5,a5,a0
400006a8:	01f6d613          	srli	a2,a3,0x1f
400006ac:	01f5d513          	srli	a0,a1,0x1f
400006b0:	c422                	sw	s0,8(sp)
400006b2:	963a                	add	a2,a2,a4
400006b4:	842e                	mv	s0,a1
400006b6:	953e                	add	a0,a0,a5
400006b8:	41f6d813          	srai	a6,a3,0x1f
400006bc:	85fd                	srai	a1,a1,0x1f
400006be:	c226                	sw	s1,4(sp)
400006c0:	00d84833          	xor	a6,a6,a3
400006c4:	84b6                	mv	s1,a3
400006c6:	00f537b3          	sltu	a5,a0,a5
400006ca:	00e636b3          	sltu	a3,a2,a4
400006ce:	8da1                	xor	a1,a1,s0
400006d0:	95be                	add	a1,a1,a5
400006d2:	4701                	li	a4,0
400006d4:	96c2                	add	a3,a3,a6
400006d6:	c606                	sw	ra,12(sp)
400006d8:	8c25                	xor	s0,s0,s1
400006da:	3521                	jal	400004e2 <__divmoddi4>
400006dc:	41f45793          	srai	a5,s0,0x1f
400006e0:	8fa9                	xor	a5,a5,a0
400006e2:	01f45513          	srli	a0,s0,0x1f
400006e6:	953e                	add	a0,a0,a5
400006e8:	847d                	srai	s0,s0,0x1f
400006ea:	8c2d                	xor	s0,s0,a1
400006ec:	00f535b3          	sltu	a1,a0,a5
400006f0:	40b2                	lw	ra,12(sp)
400006f2:	95a2                	add	a1,a1,s0
400006f4:	4422                	lw	s0,8(sp)
400006f6:	4492                	lw	s1,4(sp)
400006f8:	0141                	addi	sp,sp,16
400006fa:	8082                	ret

400006fc <__ffsdi2>:
400006fc:	00b567b3          	or	a5,a0,a1
40000700:	cb81                	beqz	a5,40000710 <__ffsdi2+0x14>
40000702:	1141                	addi	sp,sp,-16
40000704:	c606                	sw	ra,12(sp)
40000706:	3341                	jal	40000486 <__ctzdi2>
40000708:	40b2                	lw	ra,12(sp)
4000070a:	0505                	addi	a0,a0,1
4000070c:	0141                	addi	sp,sp,16
4000070e:	8082                	ret
40000710:	4501                	li	a0,0
40000712:	8082                	ret

40000714 <__lshrdi3>:
40000714:	02067793          	andi	a5,a2,32
40000718:	03f67613          	andi	a2,a2,63
4000071c:	c799                	beqz	a5,4000072a <__lshrdi3+0x16>
4000071e:	fe060513          	addi	a0,a2,-32
40000722:	00a5d533          	srl	a0,a1,a0
40000726:	4581                	li	a1,0
40000728:	8082                	ret
4000072a:	ca19                	beqz	a2,40000740 <__lshrdi3+0x2c>
4000072c:	02000793          	li	a5,32
40000730:	8f91                	sub	a5,a5,a2
40000732:	00f597b3          	sll	a5,a1,a5
40000736:	00c55533          	srl	a0,a0,a2
4000073a:	8d5d                	or	a0,a0,a5
4000073c:	00c5d5b3          	srl	a1,a1,a2
40000740:	8082                	ret

40000742 <__moddi3>:
40000742:	1101                	addi	sp,sp,-32
40000744:	c84a                	sw	s2,16(sp)
40000746:	41f6d813          	srai	a6,a3,0x1f
4000074a:	41f5d913          	srai	s2,a1,0x1f
4000074e:	cc22                	sw	s0,24(sp)
40000750:	00c84833          	xor	a6,a6,a2
40000754:	01f5d413          	srli	s0,a1,0x1f
40000758:	00a94733          	xor	a4,s2,a0
4000075c:	01f6d613          	srli	a2,a3,0x1f
40000760:	00870533          	add	a0,a4,s0
40000764:	9642                	add	a2,a2,a6
40000766:	41f6d893          	srai	a7,a3,0x1f
4000076a:	00d8c8b3          	xor	a7,a7,a3
4000076e:	00b945b3          	xor	a1,s2,a1
40000772:	010636b3          	sltu	a3,a2,a6
40000776:	00e53833          	sltu	a6,a0,a4
4000077a:	96c6                	add	a3,a3,a7
4000077c:	0038                	addi	a4,sp,8
4000077e:	95c2                	add	a1,a1,a6
40000780:	ce06                	sw	ra,28(sp)
40000782:	ca26                	sw	s1,20(sp)
40000784:	3bb9                	jal	400004e2 <__divmoddi4>
40000786:	47a2                	lw	a5,8(sp)
40000788:	45b2                	lw	a1,12(sp)
4000078a:	40f2                	lw	ra,28(sp)
4000078c:	0127c7b3          	xor	a5,a5,s2
40000790:	00878533          	add	a0,a5,s0
40000794:	4462                	lw	s0,24(sp)
40000796:	0125c5b3          	xor	a1,a1,s2
4000079a:	00f537b3          	sltu	a5,a0,a5
4000079e:	44d2                	lw	s1,20(sp)
400007a0:	4942                	lw	s2,16(sp)
400007a2:	95be                	add	a1,a1,a5
400007a4:	6105                	addi	sp,sp,32
400007a6:	8082                	ret

400007a8 <__popcountsi2>:
400007a8:	55555737          	lui	a4,0x55555
400007ac:	00155793          	srli	a5,a0,0x1
400007b0:	55570713          	addi	a4,a4,1365 # 55555555 <__global_pointer$+0x1555418d>
400007b4:	8ff9                	and	a5,a5,a4
400007b6:	8d1d                	sub	a0,a0,a5
400007b8:	33333737          	lui	a4,0x33333
400007bc:	33370713          	addi	a4,a4,819 # 33333333 <_tbss_end+0x33333333>
400007c0:	00255793          	srli	a5,a0,0x2
400007c4:	8ff9                	and	a5,a5,a4
400007c6:	8d79                	and	a0,a0,a4
400007c8:	97aa                	add	a5,a5,a0
400007ca:	0047d513          	srli	a0,a5,0x4
400007ce:	953e                	add	a0,a0,a5
400007d0:	0f0f17b7          	lui	a5,0xf0f1
400007d4:	f0f78793          	addi	a5,a5,-241 # f0f0f0f <_tbss_end+0xf0f0f0f>
400007d8:	8d7d                	and	a0,a0,a5
400007da:	01055793          	srli	a5,a0,0x10
400007de:	953e                	add	a0,a0,a5
400007e0:	00855793          	srli	a5,a0,0x8
400007e4:	953e                	add	a0,a0,a5
400007e6:	03f57513          	andi	a0,a0,63
400007ea:	8082                	ret

400007ec <__popcountdi2>:
400007ec:	01f59693          	slli	a3,a1,0x1f
400007f0:	00155793          	srli	a5,a0,0x1
400007f4:	55555737          	lui	a4,0x55555
400007f8:	55570713          	addi	a4,a4,1365 # 55555555 <__global_pointer$+0x1555418d>
400007fc:	8fd5                	or	a5,a5,a3
400007fe:	8ff9                	and	a5,a5,a4
40000800:	0015d693          	srli	a3,a1,0x1
40000804:	40f507b3          	sub	a5,a0,a5
40000808:	8f75                	and	a4,a4,a3
4000080a:	00f53533          	sltu	a0,a0,a5
4000080e:	8d99                	sub	a1,a1,a4
40000810:	8d89                	sub	a1,a1,a0
40000812:	01e59613          	slli	a2,a1,0x1e
40000816:	0027d713          	srli	a4,a5,0x2
4000081a:	333336b7          	lui	a3,0x33333
4000081e:	33368693          	addi	a3,a3,819 # 33333333 <_tbss_end+0x33333333>
40000822:	8f51                	or	a4,a4,a2
40000824:	8f75                	and	a4,a4,a3
40000826:	0025d613          	srli	a2,a1,0x2
4000082a:	00d7f533          	and	a0,a5,a3
4000082e:	953a                	add	a0,a0,a4
40000830:	00d677b3          	and	a5,a2,a3
40000834:	8df5                	and	a1,a1,a3
40000836:	00e53733          	sltu	a4,a0,a4
4000083a:	95be                	add	a1,a1,a5
4000083c:	95ba                	add	a1,a1,a4
4000083e:	01c59713          	slli	a4,a1,0x1c
40000842:	00455793          	srli	a5,a0,0x4
40000846:	8fd9                	or	a5,a5,a4
40000848:	953e                	add	a0,a0,a5
4000084a:	0045d713          	srli	a4,a1,0x4
4000084e:	95ba                	add	a1,a1,a4
40000850:	00f537b3          	sltu	a5,a0,a5
40000854:	0f0f1737          	lui	a4,0xf0f1
40000858:	f0f70713          	addi	a4,a4,-241 # f0f0f0f <_tbss_end+0xf0f0f0f>
4000085c:	97ae                	add	a5,a5,a1
4000085e:	8ff9                	and	a5,a5,a4
40000860:	8d79                	and	a0,a0,a4
40000862:	953e                	add	a0,a0,a5
40000864:	00f53733          	sltu	a4,a0,a5
40000868:	97ba                	add	a5,a5,a4
4000086a:	07c2                	slli	a5,a5,0x10
4000086c:	01055713          	srli	a4,a0,0x10
40000870:	8f5d                	or	a4,a4,a5
40000872:	953a                	add	a0,a0,a4
40000874:	00855713          	srli	a4,a0,0x8
40000878:	953a                	add	a0,a0,a4
4000087a:	07f57513          	andi	a0,a0,127
4000087e:	8082                	ret

40000880 <__udivdi3>:
40000880:	4701                	li	a4,0
40000882:	b185                	j	400004e2 <__divmoddi4>

40000884 <__umoddi3>:
40000884:	1101                	addi	sp,sp,-32
40000886:	0038                	addi	a4,sp,8
40000888:	ce06                	sw	ra,28(sp)
4000088a:	39a1                	jal	400004e2 <__divmoddi4>
4000088c:	40f2                	lw	ra,28(sp)
4000088e:	4522                	lw	a0,8(sp)
40000890:	45b2                	lw	a1,12(sp)
40000892:	6105                	addi	sp,sp,32
40000894:	8082                	ret

Disassembly of section .text.startup:

40000896 <main>:
40000896:	7139                	addi	sp,sp,-64
40000898:	4605                	li	a2,1
4000089a:	4585                	li	a1,1
4000089c:	0d900513          	li	a0,217
400008a0:	de06                	sw	ra,60(sp)
400008a2:	dc22                	sw	s0,56(sp)
400008a4:	da26                	sw	s1,52(sp)
400008a6:	ce5e                	sw	s7,28(sp)
400008a8:	c86a                	sw	s10,16(sp)
400008aa:	d84a                	sw	s2,48(sp)
400008ac:	d64e                	sw	s3,44(sp)
400008ae:	d452                	sw	s4,40(sp)
400008b0:	d256                	sw	s5,36(sp)
400008b2:	d05a                	sw	s6,32(sp)
400008b4:	cc62                	sw	s8,24(sp)
400008b6:	ca66                	sw	s9,20(sp)
400008b8:	c66e                	sw	s11,12(sp)
400008ba:	32ed                	jal	400002a4 <uart_set_ctrl>
400008bc:	4501                	li	a0,0
400008be:	3a45                	jal	4000026e <kasirga_random>
400008c0:	8d2a                	mv	s10,a0
400008c2:	ea418b93          	addi	s7,gp,-348 # 4000126c <_end>
400008c6:	e8418413          	addi	s0,gp,-380 # 4000124c <baitLocs>
400008ca:	0a000493          	li	s1,160
400008ce:	856a                	mv	a0,s10
400008d0:	3a79                	jal	4000026e <kasirga_random>
400008d2:	029577b3          	remu	a5,a0,s1
400008d6:	0421                	addi	s0,s0,8
400008d8:	fef42c23          	sw	a5,-8(s0)
400008dc:	3a49                	jal	4000026e <kasirga_random>
400008de:	029577b3          	remu	a5,a0,s1
400008e2:	8d2a                	mv	s10,a0
400008e4:	fef42e23          	sw	a5,-4(s0)
400008e8:	ff7413e3          	bne	s0,s7,400008ce <main+0x38>
400008ec:	0ff00c13          	li	s8,255
400008f0:	0e000c93          	li	s9,224
400008f4:	e8018493          	addi	s1,gp,-384 # 40001248 <screenBuffer+0x640>
400008f8:	80818a93          	addi	s5,gp,-2040 # 40000bd0 <playerPosY>
400008fc:	00000d97          	auipc	s11,0x0
40000900:	2ccd8d93          	addi	s11,s11,716 # 40000bc8 <playerSpeed>
40000904:	80c18993          	addi	s3,gp,-2036 # 40000bd4 <playerPosX>
40000908:	00000a17          	auipc	s4,0x0
4000090c:	2c4a0a13          	addi	s4,s4,708 # 40000bcc <playerWidth>
40000910:	4415                	li	s0,5
40000912:	02800913          	li	s2,40
40000916:	300007b7          	lui	a5,0x30000
4000091a:	439c                	lw	a5,0(a5)
4000091c:	4b01                	li	s6,0
4000091e:	a019                	j	40000924 <main+0x8e>
40000920:	3ad1                	jal	400002f4 <uart_read>
40000922:	8b2a                	mv	s6,a0
40000924:	3a4d                	jal	400002d6 <uart_rx_empty>
40000926:	dd6d                	beqz	a0,40000920 <main+0x8a>
40000928:	84018793          	addi	a5,gp,-1984 # 40000c08 <screenBuffer>
4000092c:	00878023          	sb	s0,0(a5) # 30000000 <_tbss_end+0x30000000>
40000930:	0785                	addi	a5,a5,1
40000932:	fe979de3          	bne	a5,s1,4000092c <main+0x96>
40000936:	001b7793          	andi	a5,s6,1
4000093a:	000aa583          	lw	a1,0(s5)
4000093e:	c791                	beqz	a5,4000094a <main+0xb4>
40000940:	000da783          	lw	a5,0(s11)
40000944:	8d9d                	sub	a1,a1,a5
40000946:	00baa023          	sw	a1,0(s5)
4000094a:	002b7713          	andi	a4,s6,2
4000094e:	0009a783          	lw	a5,0(s3)
40000952:	c711                	beqz	a4,4000095e <main+0xc8>
40000954:	000da703          	lw	a4,0(s11)
40000958:	8f99                	sub	a5,a5,a4
4000095a:	00f9a023          	sw	a5,0(s3)
4000095e:	004b7713          	andi	a4,s6,4
40000962:	c711                	beqz	a4,4000096e <main+0xd8>
40000964:	000da703          	lw	a4,0(s11)
40000968:	95ba                	add	a1,a1,a4
4000096a:	00baa023          	sw	a1,0(s5)
4000096e:	008b7b13          	andi	s6,s6,8
40000972:	000b0763          	beqz	s6,40000980 <main+0xea>
40000976:	000da703          	lw	a4,0(s11)
4000097a:	97ba                	add	a5,a5,a4
4000097c:	00f9a023          	sw	a5,0(s3)
40000980:	e8418b13          	addi	s6,gp,-380 # 4000124c <baitLocs>
40000984:	000b2683          	lw	a3,0(s6)
40000988:	02f6de63          	bge	a3,a5,400009c4 <main+0x12e>
4000098c:	a0a9                	j	400009d6 <main+0x140>
4000098e:	004b2783          	lw	a5,4(s6)
40000992:	04b7c063          	blt	a5,a1,400009d2 <main+0x13c>
40000996:	02f74e63          	blt	a4,a5,400009d2 <main+0x13c>
4000099a:	38d1                	jal	4000026e <kasirga_random>
4000099c:	032577b3          	remu	a5,a0,s2
400009a0:	078a                	slli	a5,a5,0x2
400009a2:	00fb2023          	sw	a5,0(s6)
400009a6:	30e1                	jal	4000026e <kasirga_random>
400009a8:	03257733          	remu	a4,a0,s2
400009ac:	000b2683          	lw	a3,0(s6)
400009b0:	0009a783          	lw	a5,0(s3)
400009b4:	000aa583          	lw	a1,0(s5)
400009b8:	8d2a                	mv	s10,a0
400009ba:	070a                	slli	a4,a4,0x2
400009bc:	00eb2223          	sw	a4,4(s6)
400009c0:	00f6cb63          	blt	a3,a5,400009d6 <main+0x140>
400009c4:	000a2703          	lw	a4,0(s4)
400009c8:	856a                	mv	a0,s10
400009ca:	97ba                	add	a5,a5,a4
400009cc:	972e                	add	a4,a4,a1
400009ce:	fcd7d0e3          	bge	a5,a3,4000098e <main+0xf8>
400009d2:	0009a783          	lw	a5,0(s3)
400009d6:	0b21                	addi	s6,s6,8
400009d8:	fb7b16e3          	bne	s6,s7,40000984 <main+0xee>
400009dc:	00458513          	addi	a0,a1,4
400009e0:	41f5d713          	srai	a4,a1,0x1f
400009e4:	41f55693          	srai	a3,a0,0x1f
400009e8:	8b0d                	andi	a4,a4,3
400009ea:	8a8d                	andi	a3,a3,3
400009ec:	972e                	add	a4,a4,a1
400009ee:	96aa                	add	a3,a3,a0
400009f0:	5675                	li	a2,-3
400009f2:	8709                	srai	a4,a4,0x2
400009f4:	00478893          	addi	a7,a5,4
400009f8:	8689                	srai	a3,a3,0x2
400009fa:	10c7c963          	blt	a5,a2,40000b0c <main+0x276>
400009fe:	41f7d813          	srai	a6,a5,0x1f
40000a02:	00387813          	andi	a6,a6,3
40000a06:	983e                	add	a6,a6,a5
40000a08:	40285813          	srai	a6,a6,0x2
40000a0c:	10c5c463          	blt	a1,a2,40000b14 <main+0x27e>
40000a10:	09f00613          	li	a2,159
40000a14:	12f64363          	blt	a2,a5,40000b3a <main+0x2a4>
40000a18:	00b64c63          	blt	a2,a1,40000a30 <main+0x19a>
40000a1c:	00271793          	slli	a5,a4,0x2
40000a20:	97ba                	add	a5,a5,a4
40000a22:	078e                	slli	a5,a5,0x3
40000a24:	84018613          	addi	a2,gp,-1984 # 40000c08 <screenBuffer>
40000a28:	97b2                	add	a5,a5,a2
40000a2a:	97c2                	add	a5,a5,a6
40000a2c:	01978023          	sb	s9,0(a5)
40000a30:	09f00793          	li	a5,159
40000a34:	00a7cc63          	blt	a5,a0,40000a4c <main+0x1b6>
40000a38:	00269793          	slli	a5,a3,0x2
40000a3c:	97b6                	add	a5,a5,a3
40000a3e:	078e                	slli	a5,a5,0x3
40000a40:	84018613          	addi	a2,gp,-1984 # 40000c08 <screenBuffer>
40000a44:	97b2                	add	a5,a5,a2
40000a46:	983e                	add	a6,a6,a5
40000a48:	01980023          	sb	s9,0(a6)
40000a4c:	41f8d793          	srai	a5,a7,0x1f
40000a50:	8b8d                	andi	a5,a5,3
40000a52:	97c6                	add	a5,a5,a7
40000a54:	5675                	li	a2,-3
40000a56:	8789                	srai	a5,a5,0x2
40000a58:	0cc5c963          	blt	a1,a2,40000b2a <main+0x294>
40000a5c:	09f00613          	li	a2,159
40000a60:	03164f63          	blt	a2,a7,40000a9e <main+0x208>
40000a64:	00b64c63          	blt	a2,a1,40000a7c <main+0x1e6>
40000a68:	00271593          	slli	a1,a4,0x2
40000a6c:	972e                	add	a4,a4,a1
40000a6e:	070e                	slli	a4,a4,0x3
40000a70:	84018613          	addi	a2,gp,-1984 # 40000c08 <screenBuffer>
40000a74:	9732                	add	a4,a4,a2
40000a76:	973e                	add	a4,a4,a5
40000a78:	01970023          	sb	s9,0(a4)
40000a7c:	5775                	li	a4,-3
40000a7e:	02e54063          	blt	a0,a4,40000a9e <main+0x208>
40000a82:	09f00713          	li	a4,159
40000a86:	00a74c63          	blt	a4,a0,40000a9e <main+0x208>
40000a8a:	00269713          	slli	a4,a3,0x2
40000a8e:	9736                	add	a4,a4,a3
40000a90:	070e                	slli	a4,a4,0x3
40000a92:	84018693          	addi	a3,gp,-1984 # 40000c08 <screenBuffer>
40000a96:	9736                	add	a4,a4,a3
40000a98:	97ba                	add	a5,a5,a4
40000a9a:	01978023          	sb	s9,0(a5)
40000a9e:	e8418693          	addi	a3,gp,-380 # 4000124c <baitLocs>
40000aa2:	0a200593          	li	a1,162
40000aa6:	4298                	lw	a4,0(a3)
40000aa8:	41f75793          	srai	a5,a4,0x1f
40000aac:	8b8d                	andi	a5,a5,3
40000aae:	97ba                	add	a5,a5,a4
40000ab0:	070d                	addi	a4,a4,3
40000ab2:	8789                	srai	a5,a5,0x2
40000ab4:	02e5e563          	bltu	a1,a4,40000ade <main+0x248>
40000ab8:	42c8                	lw	a0,4(a3)
40000aba:	84018613          	addi	a2,gp,-1984 # 40000c08 <screenBuffer>
40000abe:	41f55713          	srai	a4,a0,0x1f
40000ac2:	8b0d                	andi	a4,a4,3
40000ac4:	972a                	add	a4,a4,a0
40000ac6:	40275813          	srai	a6,a4,0x2
40000aca:	9b71                	andi	a4,a4,-4
40000acc:	9742                	add	a4,a4,a6
40000ace:	070e                	slli	a4,a4,0x3
40000ad0:	9732                	add	a4,a4,a2
40000ad2:	050d                	addi	a0,a0,3
40000ad4:	97ba                	add	a5,a5,a4
40000ad6:	00a5e463          	bltu	a1,a0,40000ade <main+0x248>
40000ada:	01878023          	sb	s8,0(a5)
40000ade:	06a1                	addi	a3,a3,8
40000ae0:	fd7693e3          	bne	a3,s7,40000aa6 <main+0x210>
40000ae4:	0c85                	addi	s9,s9,1
40000ae6:	0ffcfc93          	andi	s9,s9,255
40000aea:	4785                	li	a5,1
40000aec:	00fc9363          	bne	s9,a5,40000af2 <main+0x25c>
40000af0:	4c89                	li	s9,2
40000af2:	025c0c13          	addi	s8,s8,37
40000af6:	0ffc7c13          	andi	s8,s8,255
40000afa:	4785                	li	a5,1
40000afc:	00fc1363          	bne	s8,a5,40000b02 <main+0x26c>
40000b00:	4c09                	li	s8,2
40000b02:	e8018023          	sb	zero,-384(gp) # 40001248 <screenBuffer+0x640>
40000b06:	e5cff0ef          	jal	ra,40000162 <sendScreenBuffer>
40000b0a:	b531                	j	40000916 <main+0x80>
40000b0c:	57f5                	li	a5,-3
40000b0e:	f8f8c8e3          	blt	a7,a5,40000a9e <main+0x208>
40000b12:	bf2d                	j	40000a4c <main+0x1b6>
40000b14:	5675                	li	a2,-3
40000b16:	f8c544e3          	blt	a0,a2,40000a9e <main+0x208>
40000b1a:	09f00613          	li	a2,159
40000b1e:	f0f659e3          	bge	a2,a5,40000a30 <main+0x19a>
40000b22:	4791                	li	a5,4
40000b24:	02f8c7b3          	div	a5,a7,a5
40000b28:	a021                	j	40000b30 <main+0x29a>
40000b2a:	5775                	li	a4,-3
40000b2c:	f6e549e3          	blt	a0,a4,40000a9e <main+0x208>
40000b30:	09f00713          	li	a4,159
40000b34:	f51757e3          	bge	a4,a7,40000a82 <main+0x1ec>
40000b38:	b79d                	j	40000a9e <main+0x208>
40000b3a:	41f8d793          	srai	a5,a7,0x1f
40000b3e:	8b8d                	andi	a5,a5,3
40000b40:	97c6                	add	a5,a5,a7
40000b42:	8789                	srai	a5,a5,0x2
40000b44:	bf21                	j	40000a5c <main+0x1c6>

Disassembly of section .tohost:

40000b80 <tohost>:
	...

40000bc0 <fromhost>:
	...

Disassembly of section .sdata:

40000bc8 <playerSpeed>:
40000bc8:	0002                	c.slli64	zero
	...

40000bcc <playerWidth>:
40000bcc:	0006                	c.slli	zero,0x1
	...

40000bd0 <playerPosY>:
40000bd0:	0050                	addi	a2,sp,4
	...

40000bd4 <playerPosX>:
40000bd4:	0050                	addi	a2,sp,4
	...

40000bd8 <error_msg.1583>:
40000bd8:	6148                	flw	fa0,4(a0)
40000bda:	6174                	flw	fa3,68(a0)
40000bdc:	0a21                	addi	s4,s4,8
	...

40000be0 <UART_WRITE>:
40000be0:	000c                	0xc
40000be2:	2000                	fld	fs0,0(s0)

40000be4 <UART_READ>:
40000be4:	0008                	0x8
40000be6:	2000                	fld	fs0,0(s0)

40000be8 <UART_STATUS>:
40000be8:	0004                	0x4
40000bea:	2000                	fld	fs0,0(s0)

40000bec <UART_CONTROL>:
40000bec:	0000                	unimp
40000bee:	2000                	fld	fs0,0(s0)

Disassembly of section .sbss:

40000bf0 <cameraLRY>:
40000bf0:	0000                	unimp
	...

40000bf4 <cameraLRX>:
40000bf4:	0000                	unimp
	...

40000bf8 <cameraULY>:
40000bf8:	0000                	unimp
	...

40000bfc <cameraULX>:
40000bfc:	0000                	unimp
	...

40000c00 <cameraPosY>:
40000c00:	0000                	unimp
	...

40000c04 <cameraPosX>:
40000c04:	0000                	unimp
	...

Disassembly of section .bss:

40000c08 <screenBuffer>:
	...

4000124c <baitLocs>:
	...

Disassembly of section .comment:

00000000 <_tbss_end>:
   0:	3a434347          	fmsub.d	ft6,ft6,ft4,ft7,rmm
   4:	2820                	fld	fs0,80(s0)
   6:	29554e47          	fmsub.s	ft8,fa0,fs5,ft5,rmm
   a:	3920                	fld	fs0,112(a0)
   c:	322e                	fld	ft4,232(sp)
   e:	302e                	fld	ft0,232(sp)
	...

Disassembly of section .riscv.attributes:

00000000 <.riscv.attributes>:
   0:	2541                	jal	680 <_tbss_end+0x680>
   2:	0000                	unimp
   4:	7200                	flw	fs0,32(a2)
   6:	7369                	lui	t1,0xffffa
   8:	01007663          	bgeu	zero,a6,14 <_tbss_end+0x14>
   c:	0000001b          	0x1b
  10:	1004                	addi	s1,sp,32
  12:	7205                	lui	tp,0xfffe1
  14:	3376                	fld	ft6,376(sp)
  16:	6932                	flw	fs2,12(sp)
  18:	7032                	flw	ft0,44(sp)
  1a:	5f30                	lw	a2,120(a4)
  1c:	326d                	jal	fffff9c6 <__global_pointer$+0xbfffe5fe>
  1e:	3070                	fld	fa2,224(s0)
  20:	635f 7032 0030      	0x307032635f
